
SOCRATE.elf:     file format elf32-littlearm

Sections:
Idx Name          Size      VMA       LMA       File off  Algn
  0 .isr_vector   000001c4  08000000  08000000  00010000  2**0
                  CONTENTS, ALLOC, LOAD, READONLY, DATA
  1 .text         00000aa4  080001c4  080001c4  000101c4  2**2
                  CONTENTS, ALLOC, LOAD, READONLY, CODE
  2 .rodata       00000020  08000c68  08000c68  00010c68  2**2
                  CONTENTS, ALLOC, LOAD, READONLY, DATA
  3 .ARM.extab    00000000  08000c88  08000c88  00020078  2**0
                  CONTENTS
  4 .ARM          00000000  08000c88  08000c88  00020078  2**0
                  CONTENTS
  5 .preinit_array 00000000  08000c88  08000c88  00020078  2**0
                  CONTENTS, ALLOC, LOAD, DATA
  6 .init_array   00000004  08000c88  08000c88  00010c88  2**2
                  CONTENTS, ALLOC, LOAD, DATA
  7 .fini_array   00000004  08000c8c  08000c8c  00010c8c  2**2
                  CONTENTS, ALLOC, LOAD, DATA
  8 .data         00000078  20000000  08000c90  00020000  2**2
                  CONTENTS, ALLOC, LOAD, DATA
  9 .bss          0000003c  20000078  08000d08  00020078  2**2
                  ALLOC
 10 ._user_heap_stack 00000404  200000b4  08000d08  000200b4  2**0
                  ALLOC
 11 .ARM.attributes 00000030  00000000  00000000  00020078  2**0
                  CONTENTS, READONLY
 12 .debug_info   00002f78  00000000  00000000  000200a8  2**0
                  CONTENTS, READONLY, DEBUGGING
 13 .debug_abbrev 00000b56  00000000  00000000  00023020  2**0
                  CONTENTS, READONLY, DEBUGGING
 14 .debug_aranges 000001d0  00000000  00000000  00023b78  2**3
                  CONTENTS, READONLY, DEBUGGING
 15 .debug_ranges 00000178  00000000  00000000  00023d48  2**3
                  CONTENTS, READONLY, DEBUGGING
 16 .debug_macro  00003c8b  00000000  00000000  00023ec0  2**0
                  CONTENTS, READONLY, DEBUGGING
 17 .debug_line   00002822  00000000  00000000  00027b4b  2**0
                  CONTENTS, READONLY, DEBUGGING
 18 .debug_str    00073d96  00000000  00000000  0002a36d  2**0
                  CONTENTS, READONLY, DEBUGGING
 19 .comment      0000007b  00000000  00000000  0009e103  2**0
                  CONTENTS, READONLY
 20 .debug_frame  00000944  00000000  00000000  0009e180  2**2
                  CONTENTS, READONLY, DEBUGGING

Disassembly of section .text:

080001c4 <__do_global_dtors_aux>:
 80001c4:	b510      	push	{r4, lr}
 80001c6:	4c05      	ldr	r4, [pc, #20]	; (80001dc <__do_global_dtors_aux+0x18>)
 80001c8:	7823      	ldrb	r3, [r4, #0]
 80001ca:	b933      	cbnz	r3, 80001da <__do_global_dtors_aux+0x16>
 80001cc:	4b04      	ldr	r3, [pc, #16]	; (80001e0 <__do_global_dtors_aux+0x1c>)
 80001ce:	b113      	cbz	r3, 80001d6 <__do_global_dtors_aux+0x12>
 80001d0:	4804      	ldr	r0, [pc, #16]	; (80001e4 <__do_global_dtors_aux+0x20>)
 80001d2:	f3af 8000 	nop.w
 80001d6:	2301      	movs	r3, #1
 80001d8:	7023      	strb	r3, [r4, #0]
 80001da:	bd10      	pop	{r4, pc}
 80001dc:	20000078 	.word	0x20000078
 80001e0:	00000000 	.word	0x00000000
 80001e4:	08000c50 	.word	0x08000c50

080001e8 <frame_dummy>:
 80001e8:	b508      	push	{r3, lr}
 80001ea:	4b03      	ldr	r3, [pc, #12]	; (80001f8 <frame_dummy+0x10>)
 80001ec:	b11b      	cbz	r3, 80001f6 <frame_dummy+0xe>
 80001ee:	4903      	ldr	r1, [pc, #12]	; (80001fc <frame_dummy+0x14>)
 80001f0:	4803      	ldr	r0, [pc, #12]	; (8000200 <frame_dummy+0x18>)
 80001f2:	f3af 8000 	nop.w
 80001f6:	bd08      	pop	{r3, pc}
 80001f8:	00000000 	.word	0x00000000
 80001fc:	2000007c 	.word	0x2000007c
 8000200:	08000c50 	.word	0x08000c50

08000204 <NVIC_EnableIRQ>:
 8000204:	b480      	push	{r7}
 8000206:	b083      	sub	sp, #12
 8000208:	af00      	add	r7, sp, #0
 800020a:	4603      	mov	r3, r0
 800020c:	71fb      	strb	r3, [r7, #7]
 800020e:	f997 3007 	ldrsb.w	r3, [r7, #7]
 8000212:	f003 021f 	and.w	r2, r3, #31
 8000216:	4907      	ldr	r1, [pc, #28]	; (8000234 <NVIC_EnableIRQ+0x30>)
 8000218:	f997 3007 	ldrsb.w	r3, [r7, #7]
 800021c:	095b      	lsrs	r3, r3, #5
 800021e:	2001      	movs	r0, #1
 8000220:	fa00 f202 	lsl.w	r2, r0, r2
 8000224:	f841 2023 	str.w	r2, [r1, r3, lsl #2]
 8000228:	bf00      	nop
 800022a:	370c      	adds	r7, #12
 800022c:	46bd      	mov	sp, r7
 800022e:	f85d 7b04 	ldr.w	r7, [sp], #4
 8000232:	4770      	bx	lr
 8000234:	e000e100 	.word	0xe000e100

08000238 <NVIC_SetPriority>:
 8000238:	b480      	push	{r7}
 800023a:	b083      	sub	sp, #12
 800023c:	af00      	add	r7, sp, #0
 800023e:	4603      	mov	r3, r0
 8000240:	6039      	str	r1, [r7, #0]
 8000242:	71fb      	strb	r3, [r7, #7]
 8000244:	f997 3007 	ldrsb.w	r3, [r7, #7]
 8000248:	2b00      	cmp	r3, #0
 800024a:	da0c      	bge.n	8000266 <NVIC_SetPriority+0x2e>
 800024c:	683b      	ldr	r3, [r7, #0]
 800024e:	b2da      	uxtb	r2, r3
 8000250:	490d      	ldr	r1, [pc, #52]	; (8000288 <NVIC_SetPriority+0x50>)
 8000252:	f997 3007 	ldrsb.w	r3, [r7, #7]
 8000256:	f003 030f 	and.w	r3, r3, #15
 800025a:	3b04      	subs	r3, #4
 800025c:	0112      	lsls	r2, r2, #4
 800025e:	b2d2      	uxtb	r2, r2
 8000260:	440b      	add	r3, r1
 8000262:	761a      	strb	r2, [r3, #24]
 8000264:	e009      	b.n	800027a <NVIC_SetPriority+0x42>
 8000266:	683b      	ldr	r3, [r7, #0]
 8000268:	b2da      	uxtb	r2, r3
 800026a:	4908      	ldr	r1, [pc, #32]	; (800028c <NVIC_SetPriority+0x54>)
 800026c:	f997 3007 	ldrsb.w	r3, [r7, #7]
 8000270:	0112      	lsls	r2, r2, #4
 8000272:	b2d2      	uxtb	r2, r2
 8000274:	440b      	add	r3, r1
 8000276:	f883 2300 	strb.w	r2, [r3, #768]	; 0x300
 800027a:	bf00      	nop
 800027c:	370c      	adds	r7, #12
 800027e:	46bd      	mov	sp, r7
 8000280:	f85d 7b04 	ldr.w	r7, [sp], #4
 8000284:	4770      	bx	lr
 8000286:	bf00      	nop
 8000288:	e000ed00 	.word	0xe000ed00
 800028c:	e000e100 	.word	0xe000e100

08000290 <_ZN5TimerD1Ev>:
 8000290:	b480      	push	{r7}
 8000292:	b083      	sub	sp, #12
 8000294:	af00      	add	r7, sp, #0
 8000296:	6078      	str	r0, [r7, #4]
 8000298:	4a04      	ldr	r2, [pc, #16]	; (80002ac <_ZN5TimerD1Ev+0x1c>)
 800029a:	687b      	ldr	r3, [r7, #4]
 800029c:	601a      	str	r2, [r3, #0]
 800029e:	687b      	ldr	r3, [r7, #4]
 80002a0:	4618      	mov	r0, r3
 80002a2:	370c      	adds	r7, #12
 80002a4:	46bd      	mov	sp, r7
 80002a6:	f85d 7b04 	ldr.w	r7, [sp], #4
 80002aa:	4770      	bx	lr
 80002ac:	08000c80 	.word	0x08000c80

080002b0 <_ZN5TimerD0Ev>:
 80002b0:	b580      	push	{r7, lr}
 80002b2:	b082      	sub	sp, #8
 80002b4:	af00      	add	r7, sp, #0
 80002b6:	6078      	str	r0, [r7, #4]
 80002b8:	6878      	ldr	r0, [r7, #4]
 80002ba:	f7ff ffe9 	bl	8000290 <_ZN5TimerD1Ev>
 80002be:	2108      	movs	r1, #8
 80002c0:	6878      	ldr	r0, [r7, #4]
 80002c2:	f000 fb68 	bl	8000996 <_ZdlPvj>
 80002c6:	687b      	ldr	r3, [r7, #4]
 80002c8:	4618      	mov	r0, r3
 80002ca:	3708      	adds	r7, #8
 80002cc:	46bd      	mov	sp, r7
 80002ce:	bd80      	pop	{r7, pc}

080002d0 <_ZN5TimerC1EP11TIM_TypeDefmb>:
 80002d0:	b580      	push	{r7, lr}
 80002d2:	b084      	sub	sp, #16
 80002d4:	af00      	add	r7, sp, #0
 80002d6:	60f8      	str	r0, [r7, #12]
 80002d8:	60b9      	str	r1, [r7, #8]
 80002da:	607a      	str	r2, [r7, #4]
 80002dc:	70fb      	strb	r3, [r7, #3]
 80002de:	4a2f      	ldr	r2, [pc, #188]	; (800039c <_ZN5TimerC1EP11TIM_TypeDefmb+0xcc>)
 80002e0:	68fb      	ldr	r3, [r7, #12]
 80002e2:	601a      	str	r2, [r3, #0]
 80002e4:	68fb      	ldr	r3, [r7, #12]
 80002e6:	68ba      	ldr	r2, [r7, #8]
 80002e8:	605a      	str	r2, [r3, #4]
 80002ea:	68bb      	ldr	r3, [r7, #8]
 80002ec:	4a2c      	ldr	r2, [pc, #176]	; (80003a0 <_ZN5TimerC1EP11TIM_TypeDefmb+0xd0>)
 80002ee:	4293      	cmp	r3, r2
 80002f0:	d10f      	bne.n	8000312 <_ZN5TimerC1EP11TIM_TypeDefmb+0x42>
 80002f2:	4b2c      	ldr	r3, [pc, #176]	; (80003a4 <_ZN5TimerC1EP11TIM_TypeDefmb+0xd4>)
 80002f4:	6c5b      	ldr	r3, [r3, #68]	; 0x44
 80002f6:	4a2b      	ldr	r2, [pc, #172]	; (80003a4 <_ZN5TimerC1EP11TIM_TypeDefmb+0xd4>)
 80002f8:	f043 0301 	orr.w	r3, r3, #1
 80002fc:	6453      	str	r3, [r2, #68]	; 0x44
 80002fe:	78fb      	ldrb	r3, [r7, #3]
 8000300:	2b00      	cmp	r3, #0
 8000302:	d006      	beq.n	8000312 <_ZN5TimerC1EP11TIM_TypeDefmb+0x42>
 8000304:	201b      	movs	r0, #27
 8000306:	f7ff ff7d 	bl	8000204 <NVIC_EnableIRQ>
 800030a:	2102      	movs	r1, #2
 800030c:	201b      	movs	r0, #27
 800030e:	f7ff ff93 	bl	8000238 <NVIC_SetPriority>
 8000312:	68bb      	ldr	r3, [r7, #8]
 8000314:	f1b3 4f80 	cmp.w	r3, #1073741824	; 0x40000000
 8000318:	d10f      	bne.n	800033a <_ZN5TimerC1EP11TIM_TypeDefmb+0x6a>
 800031a:	4b22      	ldr	r3, [pc, #136]	; (80003a4 <_ZN5TimerC1EP11TIM_TypeDefmb+0xd4>)
 800031c:	6c1b      	ldr	r3, [r3, #64]	; 0x40
 800031e:	4a21      	ldr	r2, [pc, #132]	; (80003a4 <_ZN5TimerC1EP11TIM_TypeDefmb+0xd4>)
 8000320:	f043 0301 	orr.w	r3, r3, #1
 8000324:	6413      	str	r3, [r2, #64]	; 0x40
 8000326:	78fb      	ldrb	r3, [r7, #3]
 8000328:	2b00      	cmp	r3, #0
 800032a:	d006      	beq.n	800033a <_ZN5TimerC1EP11TIM_TypeDefmb+0x6a>
 800032c:	201c      	movs	r0, #28
 800032e:	f7ff ff69 	bl	8000204 <NVIC_EnableIRQ>
 8000332:	2101      	movs	r1, #1
 8000334:	201c      	movs	r0, #28
 8000336:	f7ff ff7f 	bl	8000238 <NVIC_SetPriority>
 800033a:	68bb      	ldr	r3, [r7, #8]
 800033c:	4a1a      	ldr	r2, [pc, #104]	; (80003a8 <_ZN5TimerC1EP11TIM_TypeDefmb+0xd8>)
 800033e:	4293      	cmp	r3, r2
 8000340:	d10f      	bne.n	8000362 <_ZN5TimerC1EP11TIM_TypeDefmb+0x92>
 8000342:	4b18      	ldr	r3, [pc, #96]	; (80003a4 <_ZN5TimerC1EP11TIM_TypeDefmb+0xd4>)
 8000344:	6c1b      	ldr	r3, [r3, #64]	; 0x40
 8000346:	4a17      	ldr	r2, [pc, #92]	; (80003a4 <_ZN5TimerC1EP11TIM_TypeDefmb+0xd4>)
 8000348:	f043 0302 	orr.w	r3, r3, #2
 800034c:	6413      	str	r3, [r2, #64]	; 0x40
 800034e:	78fb      	ldrb	r3, [r7, #3]
 8000350:	2b00      	cmp	r3, #0
 8000352:	d006      	beq.n	8000362 <_ZN5TimerC1EP11TIM_TypeDefmb+0x92>
 8000354:	201d      	movs	r0, #29
 8000356:	f7ff ff55 	bl	8000204 <NVIC_EnableIRQ>
 800035a:	2101      	movs	r1, #1
 800035c:	201d      	movs	r0, #29
 800035e:	f7ff ff6b 	bl	8000238 <NVIC_SetPriority>
 8000362:	68bb      	ldr	r3, [r7, #8]
 8000364:	4a11      	ldr	r2, [pc, #68]	; (80003ac <_ZN5TimerC1EP11TIM_TypeDefmb+0xdc>)
 8000366:	4293      	cmp	r3, r2
 8000368:	d10f      	bne.n	800038a <_ZN5TimerC1EP11TIM_TypeDefmb+0xba>
 800036a:	4b0e      	ldr	r3, [pc, #56]	; (80003a4 <_ZN5TimerC1EP11TIM_TypeDefmb+0xd4>)
 800036c:	6c1b      	ldr	r3, [r3, #64]	; 0x40
 800036e:	4a0d      	ldr	r2, [pc, #52]	; (80003a4 <_ZN5TimerC1EP11TIM_TypeDefmb+0xd4>)
 8000370:	f043 0304 	orr.w	r3, r3, #4
 8000374:	6413      	str	r3, [r2, #64]	; 0x40
 8000376:	78fb      	ldrb	r3, [r7, #3]
 8000378:	2b00      	cmp	r3, #0
 800037a:	d006      	beq.n	800038a <_ZN5TimerC1EP11TIM_TypeDefmb+0xba>
 800037c:	201e      	movs	r0, #30
 800037e:	f7ff ff41 	bl	8000204 <NVIC_EnableIRQ>
 8000382:	2100      	movs	r1, #0
 8000384:	201e      	movs	r0, #30
 8000386:	f7ff ff57 	bl	8000238 <NVIC_SetPriority>
 800038a:	6879      	ldr	r1, [r7, #4]
 800038c:	68f8      	ldr	r0, [r7, #12]
 800038e:	f000 f80f 	bl	80003b0 <_ZN5Timer9setPeriodEm>
 8000392:	68fb      	ldr	r3, [r7, #12]
 8000394:	4618      	mov	r0, r3
 8000396:	3710      	adds	r7, #16
 8000398:	46bd      	mov	sp, r7
 800039a:	bd80      	pop	{r7, pc}
 800039c:	08000c80 	.word	0x08000c80
 80003a0:	40010000 	.word	0x40010000
 80003a4:	40023800 	.word	0x40023800
 80003a8:	40000400 	.word	0x40000400
 80003ac:	40000800 	.word	0x40000800

080003b0 <_ZN5Timer9setPeriodEm>:
 80003b0:	b580      	push	{r7, lr}
 80003b2:	b084      	sub	sp, #16
 80003b4:	af00      	add	r7, sp, #0
 80003b6:	6078      	str	r0, [r7, #4]
 80003b8:	6039      	str	r1, [r7, #0]
 80003ba:	4b17      	ldr	r3, [pc, #92]	; (8000418 <_ZN5Timer9setPeriodEm+0x68>)
 80003bc:	60fb      	str	r3, [r7, #12]
 80003be:	683b      	ldr	r3, [r7, #0]
 80003c0:	3b01      	subs	r3, #1
 80003c2:	60bb      	str	r3, [r7, #8]
 80003c4:	683b      	ldr	r3, [r7, #0]
 80003c6:	f242 7210 	movw	r2, #10000	; 0x2710
 80003ca:	4293      	cmp	r3, r2
 80003cc:	d909      	bls.n	80003e2 <_ZN5Timer9setPeriodEm+0x32>
 80003ce:	683b      	ldr	r3, [r7, #0]
 80003d0:	4a12      	ldr	r2, [pc, #72]	; (800041c <_ZN5Timer9setPeriodEm+0x6c>)
 80003d2:	fba2 2303 	umull	r2, r3, r2, r3
 80003d6:	095b      	lsrs	r3, r3, #5
 80003d8:	3b01      	subs	r3, #1
 80003da:	60bb      	str	r3, [r7, #8]
 80003dc:	f644 6320 	movw	r3, #20000	; 0x4e20
 80003e0:	60fb      	str	r3, [r7, #12]
 80003e2:	68bb      	ldr	r3, [r7, #8]
 80003e4:	2b00      	cmp	r3, #0
 80003e6:	d101      	bne.n	80003ec <_ZN5Timer9setPeriodEm+0x3c>
 80003e8:	2301      	movs	r3, #1
 80003ea:	60bb      	str	r3, [r7, #8]
 80003ec:	6878      	ldr	r0, [r7, #4]
 80003ee:	f000 f82d 	bl	800044c <_ZN5Timer4stopEv>
 80003f2:	4b0b      	ldr	r3, [pc, #44]	; (8000420 <_ZN5Timer9setPeriodEm+0x70>)
 80003f4:	681a      	ldr	r2, [r3, #0]
 80003f6:	68fb      	ldr	r3, [r7, #12]
 80003f8:	fbb2 f3f3 	udiv	r3, r2, r3
 80003fc:	b29a      	uxth	r2, r3
 80003fe:	687b      	ldr	r3, [r7, #4]
 8000400:	685b      	ldr	r3, [r3, #4]
 8000402:	3a01      	subs	r2, #1
 8000404:	b292      	uxth	r2, r2
 8000406:	851a      	strh	r2, [r3, #40]	; 0x28
 8000408:	687b      	ldr	r3, [r7, #4]
 800040a:	685b      	ldr	r3, [r3, #4]
 800040c:	68ba      	ldr	r2, [r7, #8]
 800040e:	62da      	str	r2, [r3, #44]	; 0x2c
 8000410:	bf00      	nop
 8000412:	3710      	adds	r7, #16
 8000414:	46bd      	mov	sp, r7
 8000416:	bd80      	pop	{r7, pc}
 8000418:	001e8480 	.word	0x001e8480
 800041c:	51eb851f 	.word	0x51eb851f
 8000420:	20000000 	.word	0x20000000

08000424 <_ZN5Timer5startEv>:
 8000424:	b480      	push	{r7}
 8000426:	b083      	sub	sp, #12
 8000428:	af00      	add	r7, sp, #0
 800042a:	6078      	str	r0, [r7, #4]
 800042c:	687b      	ldr	r3, [r7, #4]
 800042e:	685b      	ldr	r3, [r3, #4]
 8000430:	881b      	ldrh	r3, [r3, #0]
 8000432:	b29a      	uxth	r2, r3
 8000434:	687b      	ldr	r3, [r7, #4]
 8000436:	685b      	ldr	r3, [r3, #4]
 8000438:	f042 0201 	orr.w	r2, r2, #1
 800043c:	b292      	uxth	r2, r2
 800043e:	801a      	strh	r2, [r3, #0]
 8000440:	bf00      	nop
 8000442:	370c      	adds	r7, #12
 8000444:	46bd      	mov	sp, r7
 8000446:	f85d 7b04 	ldr.w	r7, [sp], #4
 800044a:	4770      	bx	lr

0800044c <_ZN5Timer4stopEv>:
 800044c:	b480      	push	{r7}
 800044e:	b083      	sub	sp, #12
 8000450:	af00      	add	r7, sp, #0
 8000452:	6078      	str	r0, [r7, #4]
 8000454:	687b      	ldr	r3, [r7, #4]
 8000456:	685b      	ldr	r3, [r3, #4]
 8000458:	881b      	ldrh	r3, [r3, #0]
 800045a:	b29a      	uxth	r2, r3
 800045c:	687b      	ldr	r3, [r7, #4]
 800045e:	685b      	ldr	r3, [r3, #4]
 8000460:	f022 0201 	bic.w	r2, r2, #1
 8000464:	b292      	uxth	r2, r2
 8000466:	801a      	strh	r2, [r3, #0]
 8000468:	bf00      	nop
 800046a:	370c      	adds	r7, #12
 800046c:	46bd      	mov	sp, r7
 800046e:	f85d 7b04 	ldr.w	r7, [sp], #4
 8000472:	4770      	bx	lr

08000474 <_ZN14hardwareConfigC1Ev>:
 8000474:	b480      	push	{r7}
 8000476:	b083      	sub	sp, #12
 8000478:	af00      	add	r7, sp, #0
 800047a:	6078      	str	r0, [r7, #4]
 800047c:	4a04      	ldr	r2, [pc, #16]	; (8000490 <_ZN14hardwareConfigC1Ev+0x1c>)
 800047e:	687b      	ldr	r3, [r7, #4]
 8000480:	601a      	str	r2, [r3, #0]
 8000482:	687b      	ldr	r3, [r7, #4]
 8000484:	4618      	mov	r0, r3
 8000486:	370c      	adds	r7, #12
 8000488:	46bd      	mov	sp, r7
 800048a:	f85d 7b04 	ldr.w	r7, [sp], #4
 800048e:	4770      	bx	lr
 8000490:	08000c70 	.word	0x08000c70

08000494 <_ZN14hardwareConfigD1Ev>:
 8000494:	b480      	push	{r7}
 8000496:	b083      	sub	sp, #12
 8000498:	af00      	add	r7, sp, #0
 800049a:	6078      	str	r0, [r7, #4]
 800049c:	4a04      	ldr	r2, [pc, #16]	; (80004b0 <_ZN14hardwareConfigD1Ev+0x1c>)
 800049e:	687b      	ldr	r3, [r7, #4]
 80004a0:	601a      	str	r2, [r3, #0]
 80004a2:	687b      	ldr	r3, [r7, #4]
 80004a4:	4618      	mov	r0, r3
 80004a6:	370c      	adds	r7, #12
 80004a8:	46bd      	mov	sp, r7
 80004aa:	f85d 7b04 	ldr.w	r7, [sp], #4
 80004ae:	4770      	bx	lr
 80004b0:	08000c70 	.word	0x08000c70

080004b4 <_ZN14hardwareConfigD0Ev>:
 80004b4:	b580      	push	{r7, lr}
 80004b6:	b082      	sub	sp, #8
 80004b8:	af00      	add	r7, sp, #0
 80004ba:	6078      	str	r0, [r7, #4]
 80004bc:	6878      	ldr	r0, [r7, #4]
 80004be:	f7ff ffe9 	bl	8000494 <_ZN14hardwareConfigD1Ev>
 80004c2:	2104      	movs	r1, #4
 80004c4:	6878      	ldr	r0, [r7, #4]
 80004c6:	f000 fa66 	bl	8000996 <_ZdlPvj>
 80004ca:	687b      	ldr	r3, [r7, #4]
 80004cc:	4618      	mov	r0, r3
 80004ce:	3708      	adds	r7, #8
 80004d0:	46bd      	mov	sp, r7
 80004d2:	bd80      	pop	{r7, pc}

080004d4 <_ZN14hardwareConfig14SysClockConfigEv>:
 80004d4:	b480      	push	{r7}
 80004d6:	b083      	sub	sp, #12
 80004d8:	af00      	add	r7, sp, #0
 80004da:	6078      	str	r0, [r7, #4]
 80004dc:	4b30      	ldr	r3, [pc, #192]	; (80005a0 <_ZN14hardwareConfig14SysClockConfigEv+0xcc>)
 80004de:	f44f 3280 	mov.w	r2, #65536	; 0x10000
 80004e2:	601a      	str	r2, [r3, #0]
 80004e4:	4b2e      	ldr	r3, [pc, #184]	; (80005a0 <_ZN14hardwareConfig14SysClockConfigEv+0xcc>)
 80004e6:	681b      	ldr	r3, [r3, #0]
 80004e8:	f403 3300 	and.w	r3, r3, #131072	; 0x20000
 80004ec:	2b00      	cmp	r3, #0
 80004ee:	bf0c      	ite	eq
 80004f0:	2301      	moveq	r3, #1
 80004f2:	2300      	movne	r3, #0
 80004f4:	b2db      	uxtb	r3, r3
 80004f6:	2b00      	cmp	r3, #0
 80004f8:	d000      	beq.n	80004fc <_ZN14hardwareConfig14SysClockConfigEv+0x28>
 80004fa:	e7f3      	b.n	80004e4 <_ZN14hardwareConfig14SysClockConfigEv+0x10>
 80004fc:	4b28      	ldr	r3, [pc, #160]	; (80005a0 <_ZN14hardwareConfig14SysClockConfigEv+0xcc>)
 80004fe:	6c1b      	ldr	r3, [r3, #64]	; 0x40
 8000500:	4a27      	ldr	r2, [pc, #156]	; (80005a0 <_ZN14hardwareConfig14SysClockConfigEv+0xcc>)
 8000502:	f043 5380 	orr.w	r3, r3, #268435456	; 0x10000000
 8000506:	6413      	str	r3, [r2, #64]	; 0x40
 8000508:	4b26      	ldr	r3, [pc, #152]	; (80005a4 <_ZN14hardwareConfig14SysClockConfigEv+0xd0>)
 800050a:	681b      	ldr	r3, [r3, #0]
 800050c:	4a25      	ldr	r2, [pc, #148]	; (80005a4 <_ZN14hardwareConfig14SysClockConfigEv+0xd0>)
 800050e:	f443 4340 	orr.w	r3, r3, #49152	; 0xc000
 8000512:	6013      	str	r3, [r2, #0]
 8000514:	4b24      	ldr	r3, [pc, #144]	; (80005a8 <_ZN14hardwareConfig14SysClockConfigEv+0xd4>)
 8000516:	681b      	ldr	r3, [r3, #0]
 8000518:	4a23      	ldr	r2, [pc, #140]	; (80005a8 <_ZN14hardwareConfig14SysClockConfigEv+0xd4>)
 800051a:	f443 63e0 	orr.w	r3, r3, #1792	; 0x700
 800051e:	f043 0305 	orr.w	r3, r3, #5
 8000522:	6013      	str	r3, [r2, #0]
 8000524:	4b1e      	ldr	r3, [pc, #120]	; (80005a0 <_ZN14hardwareConfig14SysClockConfigEv+0xcc>)
 8000526:	4a1e      	ldr	r2, [pc, #120]	; (80005a0 <_ZN14hardwareConfig14SysClockConfigEv+0xcc>)
 8000528:	689b      	ldr	r3, [r3, #8]
 800052a:	6093      	str	r3, [r2, #8]
 800052c:	4b1c      	ldr	r3, [pc, #112]	; (80005a0 <_ZN14hardwareConfig14SysClockConfigEv+0xcc>)
 800052e:	689b      	ldr	r3, [r3, #8]
 8000530:	4a1b      	ldr	r2, [pc, #108]	; (80005a0 <_ZN14hardwareConfig14SysClockConfigEv+0xcc>)
 8000532:	f443 53a0 	orr.w	r3, r3, #5120	; 0x1400
 8000536:	6093      	str	r3, [r2, #8]
 8000538:	4b19      	ldr	r3, [pc, #100]	; (80005a0 <_ZN14hardwareConfig14SysClockConfigEv+0xcc>)
 800053a:	689b      	ldr	r3, [r3, #8]
 800053c:	4a18      	ldr	r2, [pc, #96]	; (80005a0 <_ZN14hardwareConfig14SysClockConfigEv+0xcc>)
 800053e:	f443 4300 	orr.w	r3, r3, #32768	; 0x8000
 8000542:	6093      	str	r3, [r2, #8]
 8000544:	4b16      	ldr	r3, [pc, #88]	; (80005a0 <_ZN14hardwareConfig14SysClockConfigEv+0xcc>)
 8000546:	4a19      	ldr	r2, [pc, #100]	; (80005ac <_ZN14hardwareConfig14SysClockConfigEv+0xd8>)
 8000548:	605a      	str	r2, [r3, #4]
 800054a:	4b15      	ldr	r3, [pc, #84]	; (80005a0 <_ZN14hardwareConfig14SysClockConfigEv+0xcc>)
 800054c:	681b      	ldr	r3, [r3, #0]
 800054e:	4a14      	ldr	r2, [pc, #80]	; (80005a0 <_ZN14hardwareConfig14SysClockConfigEv+0xcc>)
 8000550:	f043 7380 	orr.w	r3, r3, #16777216	; 0x1000000
 8000554:	6013      	str	r3, [r2, #0]
 8000556:	4b12      	ldr	r3, [pc, #72]	; (80005a0 <_ZN14hardwareConfig14SysClockConfigEv+0xcc>)
 8000558:	681b      	ldr	r3, [r3, #0]
 800055a:	f003 7300 	and.w	r3, r3, #33554432	; 0x2000000
 800055e:	2b00      	cmp	r3, #0
 8000560:	bf0c      	ite	eq
 8000562:	2301      	moveq	r3, #1
 8000564:	2300      	movne	r3, #0
 8000566:	b2db      	uxtb	r3, r3
 8000568:	2b00      	cmp	r3, #0
 800056a:	d000      	beq.n	800056e <_ZN14hardwareConfig14SysClockConfigEv+0x9a>
 800056c:	e7f3      	b.n	8000556 <_ZN14hardwareConfig14SysClockConfigEv+0x82>
 800056e:	4b0c      	ldr	r3, [pc, #48]	; (80005a0 <_ZN14hardwareConfig14SysClockConfigEv+0xcc>)
 8000570:	689b      	ldr	r3, [r3, #8]
 8000572:	4a0b      	ldr	r2, [pc, #44]	; (80005a0 <_ZN14hardwareConfig14SysClockConfigEv+0xcc>)
 8000574:	f043 0302 	orr.w	r3, r3, #2
 8000578:	6093      	str	r3, [r2, #8]
 800057a:	4b09      	ldr	r3, [pc, #36]	; (80005a0 <_ZN14hardwareConfig14SysClockConfigEv+0xcc>)
 800057c:	689b      	ldr	r3, [r3, #8]
 800057e:	f003 030c 	and.w	r3, r3, #12
 8000582:	2b08      	cmp	r3, #8
 8000584:	bf14      	ite	ne
 8000586:	2301      	movne	r3, #1
 8000588:	2300      	moveq	r3, #0
 800058a:	b2db      	uxtb	r3, r3
 800058c:	2b00      	cmp	r3, #0
 800058e:	d000      	beq.n	8000592 <_ZN14hardwareConfig14SysClockConfigEv+0xbe>
 8000590:	e7f3      	b.n	800057a <_ZN14hardwareConfig14SysClockConfigEv+0xa6>
 8000592:	bf00      	nop
 8000594:	370c      	adds	r7, #12
 8000596:	46bd      	mov	sp, r7
 8000598:	f85d 7b04 	ldr.w	r7, [sp], #4
 800059c:	4770      	bx	lr
 800059e:	bf00      	nop
 80005a0:	40023800 	.word	0x40023800
 80005a4:	40007000 	.word	0x40007000
 80005a8:	40023c00 	.word	0x40023c00
 80005ac:	00402d04 	.word	0x00402d04

080005b0 <_ZN14hardwareConfig11GPIO_ConfigEP12GPIO_TypeDefh10_IO_MODES_h>:
 80005b0:	b480      	push	{r7}
 80005b2:	b085      	sub	sp, #20
 80005b4:	af00      	add	r7, sp, #0
 80005b6:	60f8      	str	r0, [r7, #12]
 80005b8:	60b9      	str	r1, [r7, #8]
 80005ba:	4611      	mov	r1, r2
 80005bc:	461a      	mov	r2, r3
 80005be:	460b      	mov	r3, r1
 80005c0:	71fb      	strb	r3, [r7, #7]
 80005c2:	4613      	mov	r3, r2
 80005c4:	71bb      	strb	r3, [r7, #6]
 80005c6:	68bb      	ldr	r3, [r7, #8]
 80005c8:	4a23      	ldr	r2, [pc, #140]	; (8000658 <_ZN14hardwareConfig11GPIO_ConfigEP12GPIO_TypeDefh10_IO_MODES_h+0xa8>)
 80005ca:	4293      	cmp	r3, r2
 80005cc:	d105      	bne.n	80005da <_ZN14hardwareConfig11GPIO_ConfigEP12GPIO_TypeDefh10_IO_MODES_h+0x2a>
 80005ce:	4b23      	ldr	r3, [pc, #140]	; (800065c <_ZN14hardwareConfig11GPIO_ConfigEP12GPIO_TypeDefh10_IO_MODES_h+0xac>)
 80005d0:	6b1b      	ldr	r3, [r3, #48]	; 0x30
 80005d2:	4a22      	ldr	r2, [pc, #136]	; (800065c <_ZN14hardwareConfig11GPIO_ConfigEP12GPIO_TypeDefh10_IO_MODES_h+0xac>)
 80005d4:	f043 0301 	orr.w	r3, r3, #1
 80005d8:	6313      	str	r3, [r2, #48]	; 0x30
 80005da:	68bb      	ldr	r3, [r7, #8]
 80005dc:	4a20      	ldr	r2, [pc, #128]	; (8000660 <_ZN14hardwareConfig11GPIO_ConfigEP12GPIO_TypeDefh10_IO_MODES_h+0xb0>)
 80005de:	4293      	cmp	r3, r2
 80005e0:	d105      	bne.n	80005ee <_ZN14hardwareConfig11GPIO_ConfigEP12GPIO_TypeDefh10_IO_MODES_h+0x3e>
 80005e2:	4b1e      	ldr	r3, [pc, #120]	; (800065c <_ZN14hardwareConfig11GPIO_ConfigEP12GPIO_TypeDefh10_IO_MODES_h+0xac>)
 80005e4:	6b1b      	ldr	r3, [r3, #48]	; 0x30
 80005e6:	4a1d      	ldr	r2, [pc, #116]	; (800065c <_ZN14hardwareConfig11GPIO_ConfigEP12GPIO_TypeDefh10_IO_MODES_h+0xac>)
 80005e8:	f043 0302 	orr.w	r3, r3, #2
 80005ec:	6313      	str	r3, [r2, #48]	; 0x30
 80005ee:	68bb      	ldr	r3, [r7, #8]
 80005f0:	4a1c      	ldr	r2, [pc, #112]	; (8000664 <_ZN14hardwareConfig11GPIO_ConfigEP12GPIO_TypeDefh10_IO_MODES_h+0xb4>)
 80005f2:	4293      	cmp	r3, r2
 80005f4:	d105      	bne.n	8000602 <_ZN14hardwareConfig11GPIO_ConfigEP12GPIO_TypeDefh10_IO_MODES_h+0x52>
 80005f6:	4b19      	ldr	r3, [pc, #100]	; (800065c <_ZN14hardwareConfig11GPIO_ConfigEP12GPIO_TypeDefh10_IO_MODES_h+0xac>)
 80005f8:	6b1b      	ldr	r3, [r3, #48]	; 0x30
 80005fa:	4a18      	ldr	r2, [pc, #96]	; (800065c <_ZN14hardwareConfig11GPIO_ConfigEP12GPIO_TypeDefh10_IO_MODES_h+0xac>)
 80005fc:	f043 0304 	orr.w	r3, r3, #4
 8000600:	6313      	str	r3, [r2, #48]	; 0x30
 8000602:	79fb      	ldrb	r3, [r7, #7]
 8000604:	2b0f      	cmp	r3, #15
 8000606:	d809      	bhi.n	800061c <_ZN14hardwareConfig11GPIO_ConfigEP12GPIO_TypeDefh10_IO_MODES_h+0x6c>
 8000608:	68bb      	ldr	r3, [r7, #8]
 800060a:	681b      	ldr	r3, [r3, #0]
 800060c:	79b9      	ldrb	r1, [r7, #6]
 800060e:	79fa      	ldrb	r2, [r7, #7]
 8000610:	0052      	lsls	r2, r2, #1
 8000612:	fa01 f202 	lsl.w	r2, r1, r2
 8000616:	431a      	orrs	r2, r3
 8000618:	68bb      	ldr	r3, [r7, #8]
 800061a:	601a      	str	r2, [r3, #0]
 800061c:	79bb      	ldrb	r3, [r7, #6]
 800061e:	2b02      	cmp	r3, #2
 8000620:	d114      	bne.n	800064c <_ZN14hardwareConfig11GPIO_ConfigEP12GPIO_TypeDefh10_IO_MODES_h+0x9c>
 8000622:	79fb      	ldrb	r3, [r7, #7]
 8000624:	2b07      	cmp	r3, #7
 8000626:	d808      	bhi.n	800063a <_ZN14hardwareConfig11GPIO_ConfigEP12GPIO_TypeDefh10_IO_MODES_h+0x8a>
 8000628:	7e3a      	ldrb	r2, [r7, #24]
 800062a:	79fb      	ldrb	r3, [r7, #7]
 800062c:	009b      	lsls	r3, r3, #2
 800062e:	fa02 f303 	lsl.w	r3, r2, r3
 8000632:	461a      	mov	r2, r3
 8000634:	68bb      	ldr	r3, [r7, #8]
 8000636:	621a      	str	r2, [r3, #32]
 8000638:	e008      	b.n	800064c <_ZN14hardwareConfig11GPIO_ConfigEP12GPIO_TypeDefh10_IO_MODES_h+0x9c>
 800063a:	7e3a      	ldrb	r2, [r7, #24]
 800063c:	79fb      	ldrb	r3, [r7, #7]
 800063e:	3b08      	subs	r3, #8
 8000640:	009b      	lsls	r3, r3, #2
 8000642:	fa02 f303 	lsl.w	r3, r2, r3
 8000646:	461a      	mov	r2, r3
 8000648:	68bb      	ldr	r3, [r7, #8]
 800064a:	625a      	str	r2, [r3, #36]	; 0x24
 800064c:	bf00      	nop
 800064e:	3714      	adds	r7, #20
 8000650:	46bd      	mov	sp, r7
 8000652:	f85d 7b04 	ldr.w	r7, [sp], #4
 8000656:	4770      	bx	lr
 8000658:	40020000 	.word	0x40020000
 800065c:	40023800 	.word	0x40023800
 8000660:	40020400 	.word	0x40020400
 8000664:	40020800 	.word	0x40020800

08000668 <main>:
hardwareConfig *stm32F446;
Timer *timerTest;



int main(void) {
 8000668:	b590      	push	{r4, r7, lr}
 800066a:	b083      	sub	sp, #12
 800066c:	af02      	add	r7, sp, #8

	stm32F446 = new hardwareConfig();
 800066e:	2004      	movs	r0, #4
 8000670:	f000 f993 	bl	800099a <_Znwj>
 8000674:	4603      	mov	r3, r0
 8000676:	461c      	mov	r4, r3
 8000678:	4620      	mov	r0, r4
 800067a:	f7ff fefb 	bl	8000474 <_ZN14hardwareConfigC1Ev>
 800067e:	4b1e      	ldr	r3, [pc, #120]	; (80006f8 <main+0x90>)
 8000680:	601c      	str	r4, [r3, #0]

	stm32F446->SysClockConfig();
 8000682:	4b1d      	ldr	r3, [pc, #116]	; (80006f8 <main+0x90>)
 8000684:	681b      	ldr	r3, [r3, #0]
 8000686:	4618      	mov	r0, r3
 8000688:	f7ff ff24 	bl	80004d4 <_ZN14hardwareConfig14SysClockConfigEv>
	stm32F446->GPIO_Config(GPIOA,5,OUTPUT);
 800068c:	4b1a      	ldr	r3, [pc, #104]	; (80006f8 <main+0x90>)
 800068e:	6818      	ldr	r0, [r3, #0]
 8000690:	2300      	movs	r3, #0
 8000692:	9300      	str	r3, [sp, #0]
 8000694:	2301      	movs	r3, #1
 8000696:	2205      	movs	r2, #5
 8000698:	4918      	ldr	r1, [pc, #96]	; (80006fc <main+0x94>)
 800069a:	f7ff ff89 	bl	80005b0 <_ZN14hardwareConfig11GPIO_ConfigEP12GPIO_TypeDefh10_IO_MODES_h>

	timerTest = new Timer(TIM4, 100000, false);
 800069e:	2008      	movs	r0, #8
 80006a0:	f000 f97b 	bl	800099a <_Znwj>
 80006a4:	4603      	mov	r3, r0
 80006a6:	461c      	mov	r4, r3
 80006a8:	2300      	movs	r3, #0
 80006aa:	4a15      	ldr	r2, [pc, #84]	; (8000700 <main+0x98>)
 80006ac:	4915      	ldr	r1, [pc, #84]	; (8000704 <main+0x9c>)
 80006ae:	4620      	mov	r0, r4
 80006b0:	f7ff fe0e 	bl	80002d0 <_ZN5TimerC1EP11TIM_TypeDefmb>
 80006b4:	4b14      	ldr	r3, [pc, #80]	; (8000708 <main+0xa0>)
 80006b6:	601c      	str	r4, [r3, #0]
	stm32F446->GPIO_Config(GPIOB,6,ALTERNATE,2);// met pbs en modee pwm
 80006b8:	4b0f      	ldr	r3, [pc, #60]	; (80006f8 <main+0x90>)
 80006ba:	6818      	ldr	r0, [r3, #0]
 80006bc:	2302      	movs	r3, #2
 80006be:	9300      	str	r3, [sp, #0]
 80006c0:	2302      	movs	r3, #2
 80006c2:	2206      	movs	r2, #6
 80006c4:	4911      	ldr	r1, [pc, #68]	; (800070c <main+0xa4>)
 80006c6:	f7ff ff73 	bl	80005b0 <_ZN14hardwareConfig11GPIO_ConfigEP12GPIO_TypeDefh10_IO_MODES_h>
	//timerTest->enablePWM(1,90);
	//timerTest->setPeriod(100);
	timerTest->start();
 80006ca:	4b0f      	ldr	r3, [pc, #60]	; (8000708 <main+0xa0>)
 80006cc:	681b      	ldr	r3, [r3, #0]
 80006ce:	4618      	mov	r0, r3
 80006d0:	f7ff fea8 	bl	8000424 <_ZN5Timer5startEv>
	while(1)
	{

		GPIOA->BSRRH |= (1<<5);// set PA5
 80006d4:	4b09      	ldr	r3, [pc, #36]	; (80006fc <main+0x94>)
 80006d6:	8b5b      	ldrh	r3, [r3, #26]
 80006d8:	b29b      	uxth	r3, r3
 80006da:	4a08      	ldr	r2, [pc, #32]	; (80006fc <main+0x94>)
 80006dc:	f043 0320 	orr.w	r3, r3, #32
 80006e0:	b29b      	uxth	r3, r3
 80006e2:	8353      	strh	r3, [r2, #26]
		GPIOA->BSRRL |= (1<<5);// reset PA5
 80006e4:	4b05      	ldr	r3, [pc, #20]	; (80006fc <main+0x94>)
 80006e6:	8b1b      	ldrh	r3, [r3, #24]
 80006e8:	b29b      	uxth	r3, r3
 80006ea:	4a04      	ldr	r2, [pc, #16]	; (80006fc <main+0x94>)
 80006ec:	f043 0320 	orr.w	r3, r3, #32
 80006f0:	b29b      	uxth	r3, r3
 80006f2:	8313      	strh	r3, [r2, #24]
		GPIOA->BSRRH |= (1<<5);// set PA5
 80006f4:	e7ee      	b.n	80006d4 <main+0x6c>
 80006f6:	bf00      	nop
 80006f8:	20000094 	.word	0x20000094
 80006fc:	40020000 	.word	0x40020000
 8000700:	000186a0 	.word	0x000186a0
 8000704:	40000800 	.word	0x40000800
 8000708:	20000098 	.word	0x20000098
 800070c:	40020400 	.word	0x40020400

08000710 <_getpid>:
 8000710:	b480      	push	{r7}
 8000712:	af00      	add	r7, sp, #0
 8000714:	2301      	movs	r3, #1
 8000716:	4618      	mov	r0, r3
 8000718:	46bd      	mov	sp, r7
 800071a:	f85d 7b04 	ldr.w	r7, [sp], #4
 800071e:	4770      	bx	lr

08000720 <_kill>:
 8000720:	b580      	push	{r7, lr}
 8000722:	b082      	sub	sp, #8
 8000724:	af00      	add	r7, sp, #0
 8000726:	6078      	str	r0, [r7, #4]
 8000728:	6039      	str	r1, [r7, #0]
 800072a:	f000 f959 	bl	80009e0 <__errno>
 800072e:	4602      	mov	r2, r0
 8000730:	2316      	movs	r3, #22
 8000732:	6013      	str	r3, [r2, #0]
 8000734:	f04f 33ff 	mov.w	r3, #4294967295
 8000738:	4618      	mov	r0, r3
 800073a:	3708      	adds	r7, #8
 800073c:	46bd      	mov	sp, r7
 800073e:	bd80      	pop	{r7, pc}

08000740 <_exit>:
 8000740:	b580      	push	{r7, lr}
 8000742:	b082      	sub	sp, #8
 8000744:	af00      	add	r7, sp, #0
 8000746:	6078      	str	r0, [r7, #4]
 8000748:	f04f 31ff 	mov.w	r1, #4294967295
 800074c:	6878      	ldr	r0, [r7, #4]
 800074e:	f7ff ffe7 	bl	8000720 <_kill>
 8000752:	e7fe      	b.n	8000752 <_exit+0x12>

08000754 <_sbrk>:
 8000754:	b580      	push	{r7, lr}
 8000756:	b084      	sub	sp, #16
 8000758:	af00      	add	r7, sp, #0
 800075a:	6078      	str	r0, [r7, #4]
 800075c:	4b11      	ldr	r3, [pc, #68]	; (80007a4 <_sbrk+0x50>)
 800075e:	681b      	ldr	r3, [r3, #0]
 8000760:	2b00      	cmp	r3, #0
 8000762:	d102      	bne.n	800076a <_sbrk+0x16>
 8000764:	4b0f      	ldr	r3, [pc, #60]	; (80007a4 <_sbrk+0x50>)
 8000766:	4a10      	ldr	r2, [pc, #64]	; (80007a8 <_sbrk+0x54>)
 8000768:	601a      	str	r2, [r3, #0]
 800076a:	4b0e      	ldr	r3, [pc, #56]	; (80007a4 <_sbrk+0x50>)
 800076c:	681b      	ldr	r3, [r3, #0]
 800076e:	60fb      	str	r3, [r7, #12]
 8000770:	4b0c      	ldr	r3, [pc, #48]	; (80007a4 <_sbrk+0x50>)
 8000772:	681a      	ldr	r2, [r3, #0]
 8000774:	687b      	ldr	r3, [r7, #4]
 8000776:	4413      	add	r3, r2
 8000778:	466a      	mov	r2, sp
 800077a:	4293      	cmp	r3, r2
 800077c:	d907      	bls.n	800078e <_sbrk+0x3a>
 800077e:	f000 f92f 	bl	80009e0 <__errno>
 8000782:	4602      	mov	r2, r0
 8000784:	230c      	movs	r3, #12
 8000786:	6013      	str	r3, [r2, #0]
 8000788:	f04f 33ff 	mov.w	r3, #4294967295
 800078c:	e006      	b.n	800079c <_sbrk+0x48>
 800078e:	4b05      	ldr	r3, [pc, #20]	; (80007a4 <_sbrk+0x50>)
 8000790:	681a      	ldr	r2, [r3, #0]
 8000792:	687b      	ldr	r3, [r7, #4]
 8000794:	4413      	add	r3, r2
 8000796:	4a03      	ldr	r2, [pc, #12]	; (80007a4 <_sbrk+0x50>)
 8000798:	6013      	str	r3, [r2, #0]
 800079a:	68fb      	ldr	r3, [r7, #12]
 800079c:	4618      	mov	r0, r3
 800079e:	3710      	adds	r7, #16
 80007a0:	46bd      	mov	sp, r7
 80007a2:	bd80      	pop	{r7, pc}
 80007a4:	200000a0 	.word	0x200000a0
 80007a8:	200000b8 	.word	0x200000b8

080007ac <SystemInit>:
 80007ac:	b580      	push	{r7, lr}
 80007ae:	af00      	add	r7, sp, #0
 80007b0:	4b16      	ldr	r3, [pc, #88]	; (800080c <SystemInit+0x60>)
 80007b2:	f8d3 3088 	ldr.w	r3, [r3, #136]	; 0x88
 80007b6:	4a15      	ldr	r2, [pc, #84]	; (800080c <SystemInit+0x60>)
 80007b8:	f443 0370 	orr.w	r3, r3, #15728640	; 0xf00000
 80007bc:	f8c2 3088 	str.w	r3, [r2, #136]	; 0x88
 80007c0:	4b13      	ldr	r3, [pc, #76]	; (8000810 <SystemInit+0x64>)
 80007c2:	681b      	ldr	r3, [r3, #0]
 80007c4:	4a12      	ldr	r2, [pc, #72]	; (8000810 <SystemInit+0x64>)
 80007c6:	f043 0301 	orr.w	r3, r3, #1
 80007ca:	6013      	str	r3, [r2, #0]
 80007cc:	4b10      	ldr	r3, [pc, #64]	; (8000810 <SystemInit+0x64>)
 80007ce:	2200      	movs	r2, #0
 80007d0:	609a      	str	r2, [r3, #8]
 80007d2:	4b0f      	ldr	r3, [pc, #60]	; (8000810 <SystemInit+0x64>)
 80007d4:	681b      	ldr	r3, [r3, #0]
 80007d6:	4a0e      	ldr	r2, [pc, #56]	; (8000810 <SystemInit+0x64>)
 80007d8:	f023 7384 	bic.w	r3, r3, #17301504	; 0x1080000
 80007dc:	f423 3380 	bic.w	r3, r3, #65536	; 0x10000
 80007e0:	6013      	str	r3, [r2, #0]
 80007e2:	4b0b      	ldr	r3, [pc, #44]	; (8000810 <SystemInit+0x64>)
 80007e4:	4a0b      	ldr	r2, [pc, #44]	; (8000814 <SystemInit+0x68>)
 80007e6:	605a      	str	r2, [r3, #4]
 80007e8:	4b09      	ldr	r3, [pc, #36]	; (8000810 <SystemInit+0x64>)
 80007ea:	681b      	ldr	r3, [r3, #0]
 80007ec:	4a08      	ldr	r2, [pc, #32]	; (8000810 <SystemInit+0x64>)
 80007ee:	f423 2380 	bic.w	r3, r3, #262144	; 0x40000
 80007f2:	6013      	str	r3, [r2, #0]
 80007f4:	4b06      	ldr	r3, [pc, #24]	; (8000810 <SystemInit+0x64>)
 80007f6:	2200      	movs	r2, #0
 80007f8:	60da      	str	r2, [r3, #12]
 80007fa:	f000 f80d 	bl	8000818 <SetSysClock>
 80007fe:	4b03      	ldr	r3, [pc, #12]	; (800080c <SystemInit+0x60>)
 8000800:	f04f 6200 	mov.w	r2, #134217728	; 0x8000000
 8000804:	609a      	str	r2, [r3, #8]
 8000806:	bf00      	nop
 8000808:	bd80      	pop	{r7, pc}
 800080a:	bf00      	nop
 800080c:	e000ed00 	.word	0xe000ed00
 8000810:	40023800 	.word	0x40023800
 8000814:	24003010 	.word	0x24003010

08000818 <SetSysClock>:
 8000818:	b480      	push	{r7}
 800081a:	b083      	sub	sp, #12
 800081c:	af00      	add	r7, sp, #0
 800081e:	2300      	movs	r3, #0
 8000820:	607b      	str	r3, [r7, #4]
 8000822:	2300      	movs	r3, #0
 8000824:	603b      	str	r3, [r7, #0]
 8000826:	4b43      	ldr	r3, [pc, #268]	; (8000934 <SetSysClock+0x11c>)
 8000828:	681b      	ldr	r3, [r3, #0]
 800082a:	4a42      	ldr	r2, [pc, #264]	; (8000934 <SetSysClock+0x11c>)
 800082c:	f443 3380 	orr.w	r3, r3, #65536	; 0x10000
 8000830:	6013      	str	r3, [r2, #0]
 8000832:	4b40      	ldr	r3, [pc, #256]	; (8000934 <SetSysClock+0x11c>)
 8000834:	681b      	ldr	r3, [r3, #0]
 8000836:	f403 3300 	and.w	r3, r3, #131072	; 0x20000
 800083a:	603b      	str	r3, [r7, #0]
 800083c:	687b      	ldr	r3, [r7, #4]
 800083e:	3301      	adds	r3, #1
 8000840:	607b      	str	r3, [r7, #4]
 8000842:	683b      	ldr	r3, [r7, #0]
 8000844:	2b00      	cmp	r3, #0
 8000846:	d103      	bne.n	8000850 <SetSysClock+0x38>
 8000848:	687b      	ldr	r3, [r7, #4]
 800084a:	f5b3 4fa0 	cmp.w	r3, #20480	; 0x5000
 800084e:	d1f0      	bne.n	8000832 <SetSysClock+0x1a>
 8000850:	4b38      	ldr	r3, [pc, #224]	; (8000934 <SetSysClock+0x11c>)
 8000852:	681b      	ldr	r3, [r3, #0]
 8000854:	f403 3300 	and.w	r3, r3, #131072	; 0x20000
 8000858:	2b00      	cmp	r3, #0
 800085a:	d002      	beq.n	8000862 <SetSysClock+0x4a>
 800085c:	2301      	movs	r3, #1
 800085e:	603b      	str	r3, [r7, #0]
 8000860:	e001      	b.n	8000866 <SetSysClock+0x4e>
 8000862:	2300      	movs	r3, #0
 8000864:	603b      	str	r3, [r7, #0]
 8000866:	683b      	ldr	r3, [r7, #0]
 8000868:	2b01      	cmp	r3, #1
 800086a:	d15c      	bne.n	8000926 <SetSysClock+0x10e>
 800086c:	4b31      	ldr	r3, [pc, #196]	; (8000934 <SetSysClock+0x11c>)
 800086e:	6c1b      	ldr	r3, [r3, #64]	; 0x40
 8000870:	4a30      	ldr	r2, [pc, #192]	; (8000934 <SetSysClock+0x11c>)
 8000872:	f043 5380 	orr.w	r3, r3, #268435456	; 0x10000000
 8000876:	6413      	str	r3, [r2, #64]	; 0x40
 8000878:	4b2f      	ldr	r3, [pc, #188]	; (8000938 <SetSysClock+0x120>)
 800087a:	681b      	ldr	r3, [r3, #0]
 800087c:	4a2e      	ldr	r2, [pc, #184]	; (8000938 <SetSysClock+0x120>)
 800087e:	f443 4340 	orr.w	r3, r3, #49152	; 0xc000
 8000882:	6013      	str	r3, [r2, #0]
 8000884:	4b2b      	ldr	r3, [pc, #172]	; (8000934 <SetSysClock+0x11c>)
 8000886:	4a2b      	ldr	r2, [pc, #172]	; (8000934 <SetSysClock+0x11c>)
 8000888:	689b      	ldr	r3, [r3, #8]
 800088a:	6093      	str	r3, [r2, #8]
 800088c:	4b29      	ldr	r3, [pc, #164]	; (8000934 <SetSysClock+0x11c>)
 800088e:	689b      	ldr	r3, [r3, #8]
 8000890:	4a28      	ldr	r2, [pc, #160]	; (8000934 <SetSysClock+0x11c>)
 8000892:	f443 4300 	orr.w	r3, r3, #32768	; 0x8000
 8000896:	6093      	str	r3, [r2, #8]
 8000898:	4b26      	ldr	r3, [pc, #152]	; (8000934 <SetSysClock+0x11c>)
 800089a:	689b      	ldr	r3, [r3, #8]
 800089c:	4a25      	ldr	r2, [pc, #148]	; (8000934 <SetSysClock+0x11c>)
 800089e:	f443 53a0 	orr.w	r3, r3, #5120	; 0x1400
 80008a2:	6093      	str	r3, [r2, #8]
 80008a4:	4b23      	ldr	r3, [pc, #140]	; (8000934 <SetSysClock+0x11c>)
 80008a6:	4a25      	ldr	r2, [pc, #148]	; (800093c <SetSysClock+0x124>)
 80008a8:	605a      	str	r2, [r3, #4]
 80008aa:	4b22      	ldr	r3, [pc, #136]	; (8000934 <SetSysClock+0x11c>)
 80008ac:	681b      	ldr	r3, [r3, #0]
 80008ae:	4a21      	ldr	r2, [pc, #132]	; (8000934 <SetSysClock+0x11c>)
 80008b0:	f043 7380 	orr.w	r3, r3, #16777216	; 0x1000000
 80008b4:	6013      	str	r3, [r2, #0]
 80008b6:	bf00      	nop
 80008b8:	4b1e      	ldr	r3, [pc, #120]	; (8000934 <SetSysClock+0x11c>)
 80008ba:	681b      	ldr	r3, [r3, #0]
 80008bc:	f003 7300 	and.w	r3, r3, #33554432	; 0x2000000
 80008c0:	2b00      	cmp	r3, #0
 80008c2:	d0f9      	beq.n	80008b8 <SetSysClock+0xa0>
 80008c4:	4b1c      	ldr	r3, [pc, #112]	; (8000938 <SetSysClock+0x120>)
 80008c6:	681b      	ldr	r3, [r3, #0]
 80008c8:	4a1b      	ldr	r2, [pc, #108]	; (8000938 <SetSysClock+0x120>)
 80008ca:	f443 3380 	orr.w	r3, r3, #65536	; 0x10000
 80008ce:	6013      	str	r3, [r2, #0]
 80008d0:	bf00      	nop
 80008d2:	4b19      	ldr	r3, [pc, #100]	; (8000938 <SetSysClock+0x120>)
 80008d4:	685b      	ldr	r3, [r3, #4]
 80008d6:	f403 3380 	and.w	r3, r3, #65536	; 0x10000
 80008da:	2b00      	cmp	r3, #0
 80008dc:	d0f9      	beq.n	80008d2 <SetSysClock+0xba>
 80008de:	4b16      	ldr	r3, [pc, #88]	; (8000938 <SetSysClock+0x120>)
 80008e0:	681b      	ldr	r3, [r3, #0]
 80008e2:	4a15      	ldr	r2, [pc, #84]	; (8000938 <SetSysClock+0x120>)
 80008e4:	f443 3300 	orr.w	r3, r3, #131072	; 0x20000
 80008e8:	6013      	str	r3, [r2, #0]
 80008ea:	bf00      	nop
 80008ec:	4b12      	ldr	r3, [pc, #72]	; (8000938 <SetSysClock+0x120>)
 80008ee:	685b      	ldr	r3, [r3, #4]
 80008f0:	f403 3300 	and.w	r3, r3, #131072	; 0x20000
 80008f4:	2b00      	cmp	r3, #0
 80008f6:	d0f9      	beq.n	80008ec <SetSysClock+0xd4>
 80008f8:	4b11      	ldr	r3, [pc, #68]	; (8000940 <SetSysClock+0x128>)
 80008fa:	f240 7205 	movw	r2, #1797	; 0x705
 80008fe:	601a      	str	r2, [r3, #0]
 8000900:	4b0c      	ldr	r3, [pc, #48]	; (8000934 <SetSysClock+0x11c>)
 8000902:	689b      	ldr	r3, [r3, #8]
 8000904:	4a0b      	ldr	r2, [pc, #44]	; (8000934 <SetSysClock+0x11c>)
 8000906:	f023 0303 	bic.w	r3, r3, #3
 800090a:	6093      	str	r3, [r2, #8]
 800090c:	4b09      	ldr	r3, [pc, #36]	; (8000934 <SetSysClock+0x11c>)
 800090e:	689b      	ldr	r3, [r3, #8]
 8000910:	4a08      	ldr	r2, [pc, #32]	; (8000934 <SetSysClock+0x11c>)
 8000912:	f043 0302 	orr.w	r3, r3, #2
 8000916:	6093      	str	r3, [r2, #8]
 8000918:	bf00      	nop
 800091a:	4b06      	ldr	r3, [pc, #24]	; (8000934 <SetSysClock+0x11c>)
 800091c:	689b      	ldr	r3, [r3, #8]
 800091e:	f003 030c 	and.w	r3, r3, #12
 8000922:	2b08      	cmp	r3, #8
 8000924:	d1f9      	bne.n	800091a <SetSysClock+0x102>
 8000926:	bf00      	nop
 8000928:	370c      	adds	r7, #12
 800092a:	46bd      	mov	sp, r7
 800092c:	f85d 7b04 	ldr.w	r7, [sp], #4
 8000930:	4770      	bx	lr
 8000932:	bf00      	nop
 8000934:	40023800 	.word	0x40023800
 8000938:	40007000 	.word	0x40007000
 800093c:	77405a08 	.word	0x77405a08
 8000940:	40023c00 	.word	0x40023c00

08000944 <Reset_Handler>:
 8000944:	480d      	ldr	r0, [pc, #52]	; (800097c <LoopForever+0x2>)
 8000946:	4685      	mov	sp, r0
 8000948:	480d      	ldr	r0, [pc, #52]	; (8000980 <LoopForever+0x6>)
 800094a:	490e      	ldr	r1, [pc, #56]	; (8000984 <LoopForever+0xa>)
 800094c:	4a0e      	ldr	r2, [pc, #56]	; (8000988 <LoopForever+0xe>)
 800094e:	2300      	movs	r3, #0
 8000950:	e002      	b.n	8000958 <LoopCopyDataInit>

08000952 <CopyDataInit>:
 8000952:	58d4      	ldr	r4, [r2, r3]
 8000954:	50c4      	str	r4, [r0, r3]
 8000956:	3304      	adds	r3, #4

08000958 <LoopCopyDataInit>:
 8000958:	18c4      	adds	r4, r0, r3
 800095a:	428c      	cmp	r4, r1
 800095c:	d3f9      	bcc.n	8000952 <CopyDataInit>
 800095e:	4a0b      	ldr	r2, [pc, #44]	; (800098c <LoopForever+0x12>)
 8000960:	4c0b      	ldr	r4, [pc, #44]	; (8000990 <LoopForever+0x16>)
 8000962:	2300      	movs	r3, #0
 8000964:	e001      	b.n	800096a <LoopFillZerobss>

08000966 <FillZerobss>:
 8000966:	6013      	str	r3, [r2, #0]
 8000968:	3204      	adds	r2, #4

0800096a <LoopFillZerobss>:
 800096a:	42a2      	cmp	r2, r4
 800096c:	d3fb      	bcc.n	8000966 <FillZerobss>
 800096e:	f7ff ff1d 	bl	80007ac <SystemInit>
 8000972:	f000 f83b 	bl	80009ec <__libc_init_array>
 8000976:	f7ff fe77 	bl	8000668 <main>

0800097a <LoopForever>:
 800097a:	e7fe      	b.n	800097a <LoopForever>
 800097c:	20020000 	.word	0x20020000
 8000980:	20000000 	.word	0x20000000
 8000984:	20000078 	.word	0x20000078
 8000988:	08000c90 	.word	0x08000c90
 800098c:	20000078 	.word	0x20000078
 8000990:	200000b4 	.word	0x200000b4

08000994 <ADC_IRQHandler>:
 8000994:	e7fe      	b.n	8000994 <ADC_IRQHandler>

08000996 <_ZdlPvj>:
 8000996:	f000 b819 	b.w	80009cc <_ZdlPv>

0800099a <_Znwj>:
 800099a:	b510      	push	{r4, lr}
 800099c:	2800      	cmp	r0, #0
 800099e:	bf14      	ite	ne
 80009a0:	4604      	movne	r4, r0
 80009a2:	2401      	moveq	r4, #1
 80009a4:	4620      	mov	r0, r4
 80009a6:	f000 f845 	bl	8000a34 <malloc>
 80009aa:	b930      	cbnz	r0, 80009ba <_Znwj+0x20>
 80009ac:	f000 f806 	bl	80009bc <_ZSt15get_new_handlerv>
 80009b0:	b908      	cbnz	r0, 80009b6 <_Znwj+0x1c>
 80009b2:	f000 f80d 	bl	80009d0 <abort>
 80009b6:	4780      	blx	r0
 80009b8:	e7f4      	b.n	80009a4 <_Znwj+0xa>
 80009ba:	bd10      	pop	{r4, pc}

080009bc <_ZSt15get_new_handlerv>:
 80009bc:	4b02      	ldr	r3, [pc, #8]	; (80009c8 <_ZSt15get_new_handlerv+0xc>)
 80009be:	6818      	ldr	r0, [r3, #0]
 80009c0:	f3bf 8f5b 	dmb	ish
 80009c4:	4770      	bx	lr
 80009c6:	bf00      	nop
 80009c8:	200000a4 	.word	0x200000a4

080009cc <_ZdlPv>:
 80009cc:	f000 b83a 	b.w	8000a44 <free>

080009d0 <abort>:
 80009d0:	b508      	push	{r3, lr}
 80009d2:	2006      	movs	r0, #6
 80009d4:	f000 f91e 	bl	8000c14 <raise>
 80009d8:	2001      	movs	r0, #1
 80009da:	f7ff feb1 	bl	8000740 <_exit>
	...

080009e0 <__errno>:
 80009e0:	4b01      	ldr	r3, [pc, #4]	; (80009e8 <__errno+0x8>)
 80009e2:	6818      	ldr	r0, [r3, #0]
 80009e4:	4770      	bx	lr
 80009e6:	bf00      	nop
 80009e8:	20000014 	.word	0x20000014

080009ec <__libc_init_array>:
 80009ec:	b570      	push	{r4, r5, r6, lr}
 80009ee:	4e0d      	ldr	r6, [pc, #52]	; (8000a24 <__libc_init_array+0x38>)
 80009f0:	4c0d      	ldr	r4, [pc, #52]	; (8000a28 <__libc_init_array+0x3c>)
 80009f2:	1ba4      	subs	r4, r4, r6
 80009f4:	10a4      	asrs	r4, r4, #2
 80009f6:	2500      	movs	r5, #0
 80009f8:	42a5      	cmp	r5, r4
 80009fa:	d109      	bne.n	8000a10 <__libc_init_array+0x24>
 80009fc:	4e0b      	ldr	r6, [pc, #44]	; (8000a2c <__libc_init_array+0x40>)
 80009fe:	4c0c      	ldr	r4, [pc, #48]	; (8000a30 <__libc_init_array+0x44>)
 8000a00:	f000 f926 	bl	8000c50 <_init>
 8000a04:	1ba4      	subs	r4, r4, r6
 8000a06:	10a4      	asrs	r4, r4, #2
 8000a08:	2500      	movs	r5, #0
 8000a0a:	42a5      	cmp	r5, r4
 8000a0c:	d105      	bne.n	8000a1a <__libc_init_array+0x2e>
 8000a0e:	bd70      	pop	{r4, r5, r6, pc}
 8000a10:	f856 3025 	ldr.w	r3, [r6, r5, lsl #2]
 8000a14:	4798      	blx	r3
 8000a16:	3501      	adds	r5, #1
 8000a18:	e7ee      	b.n	80009f8 <__libc_init_array+0xc>
 8000a1a:	f856 3025 	ldr.w	r3, [r6, r5, lsl #2]
 8000a1e:	4798      	blx	r3
 8000a20:	3501      	adds	r5, #1
 8000a22:	e7f2      	b.n	8000a0a <__libc_init_array+0x1e>
 8000a24:	08000c88 	.word	0x08000c88
 8000a28:	08000c88 	.word	0x08000c88
 8000a2c:	08000c88 	.word	0x08000c88
 8000a30:	08000c8c 	.word	0x08000c8c

08000a34 <malloc>:
 8000a34:	4b02      	ldr	r3, [pc, #8]	; (8000a40 <malloc+0xc>)
 8000a36:	4601      	mov	r1, r0
 8000a38:	6818      	ldr	r0, [r3, #0]
 8000a3a:	f000 b859 	b.w	8000af0 <_malloc_r>
 8000a3e:	bf00      	nop
 8000a40:	20000014 	.word	0x20000014

08000a44 <free>:
 8000a44:	4b02      	ldr	r3, [pc, #8]	; (8000a50 <free+0xc>)
 8000a46:	4601      	mov	r1, r0
 8000a48:	6818      	ldr	r0, [r3, #0]
 8000a4a:	f000 b803 	b.w	8000a54 <_free_r>
 8000a4e:	bf00      	nop
 8000a50:	20000014 	.word	0x20000014

08000a54 <_free_r>:
 8000a54:	b538      	push	{r3, r4, r5, lr}
 8000a56:	4605      	mov	r5, r0
 8000a58:	2900      	cmp	r1, #0
 8000a5a:	d045      	beq.n	8000ae8 <_free_r+0x94>
 8000a5c:	f851 3c04 	ldr.w	r3, [r1, #-4]
 8000a60:	1f0c      	subs	r4, r1, #4
 8000a62:	2b00      	cmp	r3, #0
 8000a64:	bfb8      	it	lt
 8000a66:	18e4      	addlt	r4, r4, r3
 8000a68:	f000 f8f0 	bl	8000c4c <__malloc_lock>
 8000a6c:	4a1f      	ldr	r2, [pc, #124]	; (8000aec <_free_r+0x98>)
 8000a6e:	6813      	ldr	r3, [r2, #0]
 8000a70:	4610      	mov	r0, r2
 8000a72:	b933      	cbnz	r3, 8000a82 <_free_r+0x2e>
 8000a74:	6063      	str	r3, [r4, #4]
 8000a76:	6014      	str	r4, [r2, #0]
 8000a78:	4628      	mov	r0, r5
 8000a7a:	e8bd 4038 	ldmia.w	sp!, {r3, r4, r5, lr}
 8000a7e:	f000 b8e6 	b.w	8000c4e <__malloc_unlock>
 8000a82:	42a3      	cmp	r3, r4
 8000a84:	d90c      	bls.n	8000aa0 <_free_r+0x4c>
 8000a86:	6821      	ldr	r1, [r4, #0]
 8000a88:	1862      	adds	r2, r4, r1
 8000a8a:	4293      	cmp	r3, r2
 8000a8c:	bf04      	itt	eq
 8000a8e:	681a      	ldreq	r2, [r3, #0]
 8000a90:	685b      	ldreq	r3, [r3, #4]
 8000a92:	6063      	str	r3, [r4, #4]
 8000a94:	bf04      	itt	eq
 8000a96:	1852      	addeq	r2, r2, r1
 8000a98:	6022      	streq	r2, [r4, #0]
 8000a9a:	6004      	str	r4, [r0, #0]
 8000a9c:	e7ec      	b.n	8000a78 <_free_r+0x24>
 8000a9e:	4613      	mov	r3, r2
 8000aa0:	685a      	ldr	r2, [r3, #4]
 8000aa2:	b10a      	cbz	r2, 8000aa8 <_free_r+0x54>
 8000aa4:	42a2      	cmp	r2, r4
 8000aa6:	d9fa      	bls.n	8000a9e <_free_r+0x4a>
 8000aa8:	6819      	ldr	r1, [r3, #0]
 8000aaa:	1858      	adds	r0, r3, r1
 8000aac:	42a0      	cmp	r0, r4
 8000aae:	d10b      	bne.n	8000ac8 <_free_r+0x74>
 8000ab0:	6820      	ldr	r0, [r4, #0]
 8000ab2:	4401      	add	r1, r0
 8000ab4:	1858      	adds	r0, r3, r1
 8000ab6:	4282      	cmp	r2, r0
 8000ab8:	6019      	str	r1, [r3, #0]
 8000aba:	d1dd      	bne.n	8000a78 <_free_r+0x24>
 8000abc:	6810      	ldr	r0, [r2, #0]
 8000abe:	6852      	ldr	r2, [r2, #4]
 8000ac0:	605a      	str	r2, [r3, #4]
 8000ac2:	4401      	add	r1, r0
 8000ac4:	6019      	str	r1, [r3, #0]
 8000ac6:	e7d7      	b.n	8000a78 <_free_r+0x24>
 8000ac8:	d902      	bls.n	8000ad0 <_free_r+0x7c>
 8000aca:	230c      	movs	r3, #12
 8000acc:	602b      	str	r3, [r5, #0]
 8000ace:	e7d3      	b.n	8000a78 <_free_r+0x24>
 8000ad0:	6820      	ldr	r0, [r4, #0]
 8000ad2:	1821      	adds	r1, r4, r0
 8000ad4:	428a      	cmp	r2, r1
 8000ad6:	bf04      	itt	eq
 8000ad8:	6811      	ldreq	r1, [r2, #0]
 8000ada:	6852      	ldreq	r2, [r2, #4]
 8000adc:	6062      	str	r2, [r4, #4]
 8000ade:	bf04      	itt	eq
 8000ae0:	1809      	addeq	r1, r1, r0
 8000ae2:	6021      	streq	r1, [r4, #0]
 8000ae4:	605c      	str	r4, [r3, #4]
 8000ae6:	e7c7      	b.n	8000a78 <_free_r+0x24>
 8000ae8:	bd38      	pop	{r3, r4, r5, pc}
 8000aea:	bf00      	nop
 8000aec:	200000a8 	.word	0x200000a8

08000af0 <_malloc_r>:
 8000af0:	b570      	push	{r4, r5, r6, lr}
 8000af2:	1ccd      	adds	r5, r1, #3
 8000af4:	f025 0503 	bic.w	r5, r5, #3
 8000af8:	3508      	adds	r5, #8
 8000afa:	2d0c      	cmp	r5, #12
 8000afc:	bf38      	it	cc
 8000afe:	250c      	movcc	r5, #12
 8000b00:	2d00      	cmp	r5, #0
 8000b02:	4606      	mov	r6, r0
 8000b04:	db01      	blt.n	8000b0a <_malloc_r+0x1a>
 8000b06:	42a9      	cmp	r1, r5
 8000b08:	d903      	bls.n	8000b12 <_malloc_r+0x22>
 8000b0a:	230c      	movs	r3, #12
 8000b0c:	6033      	str	r3, [r6, #0]
 8000b0e:	2000      	movs	r0, #0
 8000b10:	bd70      	pop	{r4, r5, r6, pc}
 8000b12:	f000 f89b 	bl	8000c4c <__malloc_lock>
 8000b16:	4a21      	ldr	r2, [pc, #132]	; (8000b9c <_malloc_r+0xac>)
 8000b18:	6814      	ldr	r4, [r2, #0]
 8000b1a:	4621      	mov	r1, r4
 8000b1c:	b991      	cbnz	r1, 8000b44 <_malloc_r+0x54>
 8000b1e:	4c20      	ldr	r4, [pc, #128]	; (8000ba0 <_malloc_r+0xb0>)
 8000b20:	6823      	ldr	r3, [r4, #0]
 8000b22:	b91b      	cbnz	r3, 8000b2c <_malloc_r+0x3c>
 8000b24:	4630      	mov	r0, r6
 8000b26:	f000 f83d 	bl	8000ba4 <_sbrk_r>
 8000b2a:	6020      	str	r0, [r4, #0]
 8000b2c:	4629      	mov	r1, r5
 8000b2e:	4630      	mov	r0, r6
 8000b30:	f000 f838 	bl	8000ba4 <_sbrk_r>
 8000b34:	1c43      	adds	r3, r0, #1
 8000b36:	d124      	bne.n	8000b82 <_malloc_r+0x92>
 8000b38:	230c      	movs	r3, #12
 8000b3a:	6033      	str	r3, [r6, #0]
 8000b3c:	4630      	mov	r0, r6
 8000b3e:	f000 f886 	bl	8000c4e <__malloc_unlock>
 8000b42:	e7e4      	b.n	8000b0e <_malloc_r+0x1e>
 8000b44:	680b      	ldr	r3, [r1, #0]
 8000b46:	1b5b      	subs	r3, r3, r5
 8000b48:	d418      	bmi.n	8000b7c <_malloc_r+0x8c>
 8000b4a:	2b0b      	cmp	r3, #11
 8000b4c:	d90f      	bls.n	8000b6e <_malloc_r+0x7e>
 8000b4e:	600b      	str	r3, [r1, #0]
 8000b50:	50cd      	str	r5, [r1, r3]
 8000b52:	18cc      	adds	r4, r1, r3
 8000b54:	4630      	mov	r0, r6
 8000b56:	f000 f87a 	bl	8000c4e <__malloc_unlock>
 8000b5a:	f104 000b 	add.w	r0, r4, #11
 8000b5e:	1d23      	adds	r3, r4, #4
 8000b60:	f020 0007 	bic.w	r0, r0, #7
 8000b64:	1ac3      	subs	r3, r0, r3
 8000b66:	d0d3      	beq.n	8000b10 <_malloc_r+0x20>
 8000b68:	425a      	negs	r2, r3
 8000b6a:	50e2      	str	r2, [r4, r3]
 8000b6c:	e7d0      	b.n	8000b10 <_malloc_r+0x20>
 8000b6e:	428c      	cmp	r4, r1
 8000b70:	684b      	ldr	r3, [r1, #4]
 8000b72:	bf16      	itet	ne
 8000b74:	6063      	strne	r3, [r4, #4]
 8000b76:	6013      	streq	r3, [r2, #0]
 8000b78:	460c      	movne	r4, r1
 8000b7a:	e7eb      	b.n	8000b54 <_malloc_r+0x64>
 8000b7c:	460c      	mov	r4, r1
 8000b7e:	6849      	ldr	r1, [r1, #4]
 8000b80:	e7cc      	b.n	8000b1c <_malloc_r+0x2c>
 8000b82:	1cc4      	adds	r4, r0, #3
 8000b84:	f024 0403 	bic.w	r4, r4, #3
 8000b88:	42a0      	cmp	r0, r4
 8000b8a:	d005      	beq.n	8000b98 <_malloc_r+0xa8>
 8000b8c:	1a21      	subs	r1, r4, r0
 8000b8e:	4630      	mov	r0, r6
 8000b90:	f000 f808 	bl	8000ba4 <_sbrk_r>
 8000b94:	3001      	adds	r0, #1
 8000b96:	d0cf      	beq.n	8000b38 <_malloc_r+0x48>
 8000b98:	6025      	str	r5, [r4, #0]
 8000b9a:	e7db      	b.n	8000b54 <_malloc_r+0x64>
 8000b9c:	200000a8 	.word	0x200000a8
 8000ba0:	200000ac 	.word	0x200000ac

08000ba4 <_sbrk_r>:
 8000ba4:	b538      	push	{r3, r4, r5, lr}
 8000ba6:	4c06      	ldr	r4, [pc, #24]	; (8000bc0 <_sbrk_r+0x1c>)
 8000ba8:	2300      	movs	r3, #0
 8000baa:	4605      	mov	r5, r0
 8000bac:	4608      	mov	r0, r1
 8000bae:	6023      	str	r3, [r4, #0]
 8000bb0:	f7ff fdd0 	bl	8000754 <_sbrk>
 8000bb4:	1c43      	adds	r3, r0, #1
 8000bb6:	d102      	bne.n	8000bbe <_sbrk_r+0x1a>
 8000bb8:	6823      	ldr	r3, [r4, #0]
 8000bba:	b103      	cbz	r3, 8000bbe <_sbrk_r+0x1a>
 8000bbc:	602b      	str	r3, [r5, #0]
 8000bbe:	bd38      	pop	{r3, r4, r5, pc}
 8000bc0:	200000b0 	.word	0x200000b0

08000bc4 <_raise_r>:
 8000bc4:	291f      	cmp	r1, #31
 8000bc6:	b538      	push	{r3, r4, r5, lr}
 8000bc8:	4604      	mov	r4, r0
 8000bca:	460d      	mov	r5, r1
 8000bcc:	d904      	bls.n	8000bd8 <_raise_r+0x14>
 8000bce:	2316      	movs	r3, #22
 8000bd0:	6003      	str	r3, [r0, #0]
 8000bd2:	f04f 30ff 	mov.w	r0, #4294967295
 8000bd6:	bd38      	pop	{r3, r4, r5, pc}
 8000bd8:	6c42      	ldr	r2, [r0, #68]	; 0x44
 8000bda:	b112      	cbz	r2, 8000be2 <_raise_r+0x1e>
 8000bdc:	f852 3021 	ldr.w	r3, [r2, r1, lsl #2]
 8000be0:	b94b      	cbnz	r3, 8000bf6 <_raise_r+0x32>
 8000be2:	4620      	mov	r0, r4
 8000be4:	f000 f830 	bl	8000c48 <_getpid_r>
 8000be8:	462a      	mov	r2, r5
 8000bea:	4601      	mov	r1, r0
 8000bec:	4620      	mov	r0, r4
 8000bee:	e8bd 4038 	ldmia.w	sp!, {r3, r4, r5, lr}
 8000bf2:	f000 b817 	b.w	8000c24 <_kill_r>
 8000bf6:	2b01      	cmp	r3, #1
 8000bf8:	d00a      	beq.n	8000c10 <_raise_r+0x4c>
 8000bfa:	1c59      	adds	r1, r3, #1
 8000bfc:	d103      	bne.n	8000c06 <_raise_r+0x42>
 8000bfe:	2316      	movs	r3, #22
 8000c00:	6003      	str	r3, [r0, #0]
 8000c02:	2001      	movs	r0, #1
 8000c04:	e7e7      	b.n	8000bd6 <_raise_r+0x12>
 8000c06:	2400      	movs	r4, #0
 8000c08:	f842 4025 	str.w	r4, [r2, r5, lsl #2]
 8000c0c:	4628      	mov	r0, r5
 8000c0e:	4798      	blx	r3
 8000c10:	2000      	movs	r0, #0
 8000c12:	e7e0      	b.n	8000bd6 <_raise_r+0x12>

08000c14 <raise>:
 8000c14:	4b02      	ldr	r3, [pc, #8]	; (8000c20 <raise+0xc>)
 8000c16:	4601      	mov	r1, r0
 8000c18:	6818      	ldr	r0, [r3, #0]
 8000c1a:	f7ff bfd3 	b.w	8000bc4 <_raise_r>
 8000c1e:	bf00      	nop
 8000c20:	20000014 	.word	0x20000014

08000c24 <_kill_r>:
 8000c24:	b538      	push	{r3, r4, r5, lr}
 8000c26:	4c07      	ldr	r4, [pc, #28]	; (8000c44 <_kill_r+0x20>)
 8000c28:	2300      	movs	r3, #0
 8000c2a:	4605      	mov	r5, r0
 8000c2c:	4608      	mov	r0, r1
 8000c2e:	4611      	mov	r1, r2
 8000c30:	6023      	str	r3, [r4, #0]
 8000c32:	f7ff fd75 	bl	8000720 <_kill>
 8000c36:	1c43      	adds	r3, r0, #1
 8000c38:	d102      	bne.n	8000c40 <_kill_r+0x1c>
 8000c3a:	6823      	ldr	r3, [r4, #0]
 8000c3c:	b103      	cbz	r3, 8000c40 <_kill_r+0x1c>
 8000c3e:	602b      	str	r3, [r5, #0]
 8000c40:	bd38      	pop	{r3, r4, r5, pc}
 8000c42:	bf00      	nop
 8000c44:	200000b0 	.word	0x200000b0

08000c48 <_getpid_r>:
 8000c48:	f7ff bd62 	b.w	8000710 <_getpid>

08000c4c <__malloc_lock>:
 8000c4c:	4770      	bx	lr

08000c4e <__malloc_unlock>:
 8000c4e:	4770      	bx	lr

08000c50 <_init>:
 8000c50:	b5f8      	push	{r3, r4, r5, r6, r7, lr}
 8000c52:	bf00      	nop
 8000c54:	bcf8      	pop	{r3, r4, r5, r6, r7}
 8000c56:	bc08      	pop	{r3}
 8000c58:	469e      	mov	lr, r3
 8000c5a:	4770      	bx	lr

08000c5c <_fini>:
 8000c5c:	b5f8      	push	{r3, r4, r5, r6, r7, lr}
 8000c5e:	bf00      	nop
 8000c60:	bcf8      	pop	{r3, r4, r5, r6, r7}
 8000c62:	bc08      	pop	{r3}
 8000c64:	469e      	mov	lr, r3
 8000c66:	4770      	bx	lr
