
SOCRATE.elf:     file format elf32-littlearm

Sections:
Idx Name          Size      VMA       LMA       File off  Algn
  0 .isr_vector   000001c4  08000000  08000000  00010000  2**0
                  CONTENTS, ALLOC, LOAD, READONLY, DATA
  1 .text         000014b8  080001c4  080001c4  000101c4  2**2
                  CONTENTS, ALLOC, LOAD, READONLY, CODE
  2 .rodata       00000084  0800167c  0800167c  0001167c  2**2
                  CONTENTS, ALLOC, LOAD, READONLY, DATA
  3 .ARM.extab    00000000  08001700  08001700  00020080  2**0
                  CONTENTS
  4 .ARM          00000000  08001700  08001700  00020080  2**0
                  CONTENTS
  5 .preinit_array 00000000  08001700  08001700  00020080  2**0
                  CONTENTS, ALLOC, LOAD, DATA
  6 .init_array   00000008  08001700  08001700  00011700  2**2
                  CONTENTS, ALLOC, LOAD, DATA
  7 .fini_array   00000008  08001708  08001708  00011708  2**2
                  CONTENTS, ALLOC, LOAD, DATA
  8 .data         00000080  20000000  08001710  00020000  2**2
                  CONTENTS, ALLOC, LOAD, DATA
  9 .bss          00000088  20000080  08001790  00020080  2**2
                  ALLOC
 10 ._user_heap_stack 00000400  20000108  08001790  00020108  2**0
                  ALLOC
 11 .ARM.attributes 00000030  00000000  00000000  00020080  2**0
                  CONTENTS, READONLY
 12 .debug_info   0000c3b2  00000000  00000000  000200b0  2**0
                  CONTENTS, READONLY, DEBUGGING
 13 .debug_abbrev 0000167d  00000000  00000000  0002c462  2**0
                  CONTENTS, READONLY, DEBUGGING
 14 .debug_aranges 00000298  00000000  00000000  0002dae0  2**3
                  CONTENTS, READONLY, DEBUGGING
 15 .debug_ranges 00000230  00000000  00000000  0002dd78  2**3
                  CONTENTS, READONLY, DEBUGGING
 16 .debug_macro  00004def  00000000  00000000  0002dfa8  2**0
                  CONTENTS, READONLY, DEBUGGING
 17 .debug_line   000041d3  00000000  00000000  00032d97  2**0
                  CONTENTS, READONLY, DEBUGGING
 18 .debug_str    00081398  00000000  00000000  00036f6a  2**0
                  CONTENTS, READONLY, DEBUGGING
 19 .comment      0000007b  00000000  00000000  000b8302  2**0
                  CONTENTS, READONLY
 20 .debug_frame  00001fdc  00000000  00000000  000b8380  2**2
                  CONTENTS, READONLY, DEBUGGING

Disassembly of section .text:

080001c4 <__do_global_dtors_aux>:
 80001c4:	b510      	push	{r4, lr}
 80001c6:	4c05      	ldr	r4, [pc, #20]	; (80001dc <__do_global_dtors_aux+0x18>)
 80001c8:	7823      	ldrb	r3, [r4, #0]
 80001ca:	b933      	cbnz	r3, 80001da <__do_global_dtors_aux+0x16>
 80001cc:	4b04      	ldr	r3, [pc, #16]	; (80001e0 <__do_global_dtors_aux+0x1c>)
 80001ce:	b113      	cbz	r3, 80001d6 <__do_global_dtors_aux+0x12>
 80001d0:	4804      	ldr	r0, [pc, #16]	; (80001e4 <__do_global_dtors_aux+0x20>)
 80001d2:	f3af 8000 	nop.w
 80001d6:	2301      	movs	r3, #1
 80001d8:	7023      	strb	r3, [r4, #0]
 80001da:	bd10      	pop	{r4, pc}
 80001dc:	20000080 	.word	0x20000080
 80001e0:	00000000 	.word	0x00000000
 80001e4:	08001664 	.word	0x08001664

080001e8 <frame_dummy>:
 80001e8:	b508      	push	{r3, lr}
 80001ea:	4b03      	ldr	r3, [pc, #12]	; (80001f8 <frame_dummy+0x10>)
 80001ec:	b11b      	cbz	r3, 80001f6 <frame_dummy+0xe>
 80001ee:	4903      	ldr	r1, [pc, #12]	; (80001fc <frame_dummy+0x14>)
 80001f0:	4803      	ldr	r0, [pc, #12]	; (8000200 <frame_dummy+0x18>)
 80001f2:	f3af 8000 	nop.w
 80001f6:	bd08      	pop	{r3, pc}
 80001f8:	00000000 	.word	0x00000000
 80001fc:	20000084 	.word	0x20000084
 8000200:	08001664 	.word	0x08001664

08000204 <strlen>:
 8000204:	4603      	mov	r3, r0
 8000206:	f813 2b01 	ldrb.w	r2, [r3], #1
 800020a:	2a00      	cmp	r2, #0
 800020c:	d1fb      	bne.n	8000206 <strlen+0x2>
 800020e:	1a18      	subs	r0, r3, r0
 8000210:	3801      	subs	r0, #1
 8000212:	4770      	bx	lr

08000214 <NVIC_EnableIRQ>:
    The function enables a device-specific interrupt in the NVIC interrupt controller.

    \param [in]      IRQn  External interrupt number. Value cannot be negative.
 */
__STATIC_INLINE void NVIC_EnableIRQ(IRQn_Type IRQn)
{
 8000214:	b480      	push	{r7}
 8000216:	b083      	sub	sp, #12
 8000218:	af00      	add	r7, sp, #0
 800021a:	4603      	mov	r3, r0
 800021c:	71fb      	strb	r3, [r7, #7]
  NVIC->ISER[(((uint32_t)(int32_t)IRQn) >> 5UL)] = (uint32_t)(1UL << (((uint32_t)(int32_t)IRQn) & 0x1FUL));
 800021e:	f997 3007 	ldrsb.w	r3, [r7, #7]
 8000222:	f003 021f 	and.w	r2, r3, #31
 8000226:	4907      	ldr	r1, [pc, #28]	; (8000244 <NVIC_EnableIRQ+0x30>)
 8000228:	f997 3007 	ldrsb.w	r3, [r7, #7]
 800022c:	095b      	lsrs	r3, r3, #5
 800022e:	2001      	movs	r0, #1
 8000230:	fa00 f202 	lsl.w	r2, r0, r2
 8000234:	f841 2023 	str.w	r2, [r1, r3, lsl #2]
}
 8000238:	bf00      	nop
 800023a:	370c      	adds	r7, #12
 800023c:	46bd      	mov	sp, r7
 800023e:	f85d 7b04 	ldr.w	r7, [sp], #4
 8000242:	4770      	bx	lr
 8000244:	e000e100 	.word	0xe000e100

08000248 <NVIC_SetPriority>:

    \param [in]      IRQn  Interrupt number.
    \param [in]  priority  Priority to set.
 */
__STATIC_INLINE void NVIC_SetPriority(IRQn_Type IRQn, uint32_t priority)
{
 8000248:	b480      	push	{r7}
 800024a:	b083      	sub	sp, #12
 800024c:	af00      	add	r7, sp, #0
 800024e:	4603      	mov	r3, r0
 8000250:	6039      	str	r1, [r7, #0]
 8000252:	71fb      	strb	r3, [r7, #7]
  if((int32_t)IRQn < 0) {
 8000254:	f997 3007 	ldrsb.w	r3, [r7, #7]
 8000258:	2b00      	cmp	r3, #0
 800025a:	da0c      	bge.n	8000276 <NVIC_SetPriority+0x2e>
    SCB->SHP[(((uint32_t)(int32_t)IRQn) & 0xFUL)-4UL] = (uint8_t)((priority << (8 - __NVIC_PRIO_BITS)) & (uint32_t)0xFFUL);
 800025c:	683b      	ldr	r3, [r7, #0]
 800025e:	b2da      	uxtb	r2, r3
 8000260:	490d      	ldr	r1, [pc, #52]	; (8000298 <NVIC_SetPriority+0x50>)
 8000262:	f997 3007 	ldrsb.w	r3, [r7, #7]
 8000266:	f003 030f 	and.w	r3, r3, #15
 800026a:	3b04      	subs	r3, #4
 800026c:	0112      	lsls	r2, r2, #4
 800026e:	b2d2      	uxtb	r2, r2
 8000270:	440b      	add	r3, r1
 8000272:	761a      	strb	r2, [r3, #24]
  }
  else {
    NVIC->IP[((uint32_t)(int32_t)IRQn)]               = (uint8_t)((priority << (8 - __NVIC_PRIO_BITS)) & (uint32_t)0xFFUL);
  }
}
 8000274:	e009      	b.n	800028a <NVIC_SetPriority+0x42>
    NVIC->IP[((uint32_t)(int32_t)IRQn)]               = (uint8_t)((priority << (8 - __NVIC_PRIO_BITS)) & (uint32_t)0xFFUL);
 8000276:	683b      	ldr	r3, [r7, #0]
 8000278:	b2da      	uxtb	r2, r3
 800027a:	4908      	ldr	r1, [pc, #32]	; (800029c <NVIC_SetPriority+0x54>)
 800027c:	f997 3007 	ldrsb.w	r3, [r7, #7]
 8000280:	0112      	lsls	r2, r2, #4
 8000282:	b2d2      	uxtb	r2, r2
 8000284:	440b      	add	r3, r1
 8000286:	f883 2300 	strb.w	r2, [r3, #768]	; 0x300
}
 800028a:	bf00      	nop
 800028c:	370c      	adds	r7, #12
 800028e:	46bd      	mov	sp, r7
 8000290:	f85d 7b04 	ldr.w	r7, [sp], #4
 8000294:	4770      	bx	lr
 8000296:	bf00      	nop
 8000298:	e000ed00 	.word	0xe000ed00
 800029c:	e000e100 	.word	0xe000e100

080002a0 <_ZN15STM32F446Usart3C1Ev>:
#include "STM32F446Usart.h"

STM32F446Usart3* STM32F446Usart3::instance =0;


STM32F446Usart3::STM32F446Usart3()
 80002a0:	b590      	push	{r4, r7, lr}
 80002a2:	b085      	sub	sp, #20
 80002a4:	af02      	add	r7, sp, #8
 80002a6:	6078      	str	r0, [r7, #4]
 80002a8:	4a38      	ldr	r2, [pc, #224]	; (800038c <_ZN15STM32F446Usart3C1Ev+0xec>)
 80002aa:	687b      	ldr	r3, [r7, #4]
 80002ac:	601a      	str	r2, [r3, #0]
 80002ae:	687b      	ldr	r3, [r7, #4]
 80002b0:	3308      	adds	r3, #8
 80002b2:	4618      	mov	r0, r3
 80002b4:	f000 f9d4 	bl	8000660 <_ZN8BuffFifoImLt64EEC1Ev>
 80002b8:	687b      	ldr	r3, [r7, #4]
 80002ba:	f503 7388 	add.w	r3, r3, #272	; 0x110
 80002be:	4618      	mov	r0, r3
 80002c0:	f000 f9ce 	bl	8000660 <_ZN8BuffFifoImLt64EEC1Ev>
{
	config = new hardwareConfig();
 80002c4:	2004      	movs	r0, #4
 80002c6:	f000 ffea 	bl	800129e <_Znwj>
 80002ca:	4603      	mov	r3, r0
 80002cc:	461c      	mov	r4, r3
 80002ce:	4620      	mov	r0, r4
 80002d0:	f000 fc78 	bl	8000bc4 <_ZN14hardwareConfigC1Ev>
 80002d4:	687b      	ldr	r3, [r7, #4]
 80002d6:	f8c3 4218 	str.w	r4, [r3, #536]	; 0x218
	//active la clk du gpio B et du usart 3
	RCC->APB1ENR |= RCC_APB1ENR_USART3EN;//(1<<18)
 80002da:	4b2d      	ldr	r3, [pc, #180]	; (8000390 <_ZN15STM32F446Usart3C1Ev+0xf0>)
 80002dc:	6c1b      	ldr	r3, [r3, #64]	; 0x40
 80002de:	4a2c      	ldr	r2, [pc, #176]	; (8000390 <_ZN15STM32F446Usart3C1Ev+0xf0>)
 80002e0:	f443 2380 	orr.w	r3, r3, #262144	; 0x40000
 80002e4:	6413      	str	r3, [r2, #64]	; 0x40
	RCC->APB1ENR |= RCC_AHB1ENR_GPIOBEN;
 80002e6:	4b2a      	ldr	r3, [pc, #168]	; (8000390 <_ZN15STM32F446Usart3C1Ev+0xf0>)
 80002e8:	6c1b      	ldr	r3, [r3, #64]	; 0x40
 80002ea:	4a29      	ldr	r2, [pc, #164]	; (8000390 <_ZN15STM32F446Usart3C1Ev+0xf0>)
 80002ec:	f043 0302 	orr.w	r3, r3, #2
 80002f0:	6413      	str	r3, [r2, #64]	; 0x40


	//mode alternatif pour pb10 et 11
	config->GPIO_Config(GPIOC, 10, ALTERNATE, 7);
 80002f2:	687b      	ldr	r3, [r7, #4]
 80002f4:	f8d3 0218 	ldr.w	r0, [r3, #536]	; 0x218
 80002f8:	2307      	movs	r3, #7
 80002fa:	9300      	str	r3, [sp, #0]
 80002fc:	2302      	movs	r3, #2
 80002fe:	220a      	movs	r2, #10
 8000300:	4924      	ldr	r1, [pc, #144]	; (8000394 <_ZN15STM32F446Usart3C1Ev+0xf4>)
 8000302:	f000 fcfd 	bl	8000d00 <_ZN14hardwareConfig11GPIO_ConfigEP12GPIO_TypeDefh10_IO_MODES_h>
	config->GPIO_Config(GPIOC, 5 , ALTERNATE, 7);
 8000306:	687b      	ldr	r3, [r7, #4]
 8000308:	f8d3 0218 	ldr.w	r0, [r3, #536]	; 0x218
 800030c:	2307      	movs	r3, #7
 800030e:	9300      	str	r3, [sp, #0]
 8000310:	2302      	movs	r3, #2
 8000312:	2205      	movs	r2, #5
 8000314:	491f      	ldr	r1, [pc, #124]	; (8000394 <_ZN15STM32F446Usart3C1Ev+0xf4>)
 8000316:	f000 fcf3 	bl	8000d00 <_ZN14hardwareConfig11GPIO_ConfigEP12GPIO_TypeDefh10_IO_MODES_h>
	GPIOC->AFR[0] |= (7<<8); // registre af7 fction alternative USART3
 800031a:	4b1e      	ldr	r3, [pc, #120]	; (8000394 <_ZN15STM32F446Usart3C1Ev+0xf4>)
 800031c:	6a1b      	ldr	r3, [r3, #32]
 800031e:	4a1d      	ldr	r2, [pc, #116]	; (8000394 <_ZN15STM32F446Usart3C1Ev+0xf4>)
 8000320:	f443 63e0 	orr.w	r3, r3, #1792	; 0x700
 8000324:	6213      	str	r3, [r2, #32]
	GPIOC->AFR[1] |= (7<<12);
 8000326:	4b1b      	ldr	r3, [pc, #108]	; (8000394 <_ZN15STM32F446Usart3C1Ev+0xf4>)
 8000328:	6a5b      	ldr	r3, [r3, #36]	; 0x24
 800032a:	4a1a      	ldr	r2, [pc, #104]	; (8000394 <_ZN15STM32F446Usart3C1Ev+0xf4>)
 800032c:	f443 43e0 	orr.w	r3, r3, #28672	; 0x7000
 8000330:	6253      	str	r3, [r2, #36]	; 0x24

	//sélection du baud 8N1 @9600
	USART3->CR1 &= ~USART_CR1_UE;// usart disable
 8000332:	4b19      	ldr	r3, [pc, #100]	; (8000398 <_ZN15STM32F446Usart3C1Ev+0xf8>)
 8000334:	899b      	ldrh	r3, [r3, #12]
 8000336:	b29b      	uxth	r3, r3
 8000338:	4a17      	ldr	r2, [pc, #92]	; (8000398 <_ZN15STM32F446Usart3C1Ev+0xf8>)
 800033a:	f423 5300 	bic.w	r3, r3, #8192	; 0x2000
 800033e:	b29b      	uxth	r3, r3
 8000340:	8193      	strh	r3, [r2, #12]
	NVIC_EnableIRQ(USART3_IRQn);
 8000342:	2027      	movs	r0, #39	; 0x27
 8000344:	f7ff ff66 	bl	8000214 <NVIC_EnableIRQ>
	NVIC_SetPriority(USART3_IRQn,4);
 8000348:	2104      	movs	r1, #4
 800034a:	2027      	movs	r0, #39	; 0x27
 800034c:	f7ff ff7c 	bl	8000248 <NVIC_SetPriority>
	//active le tx et rx + les interruptions dee chaqu'un
	USART3->CR1 |=  USART_CR1_TE | USART_CR1_RE |  USART_CR1_RXNEIE | USART_CR1_TXEIE;
 8000350:	4b11      	ldr	r3, [pc, #68]	; (8000398 <_ZN15STM32F446Usart3C1Ev+0xf8>)
 8000352:	899b      	ldrh	r3, [r3, #12]
 8000354:	b29b      	uxth	r3, r3
 8000356:	4a10      	ldr	r2, [pc, #64]	; (8000398 <_ZN15STM32F446Usart3C1Ev+0xf8>)
 8000358:	f043 03ac 	orr.w	r3, r3, #172	; 0xac
 800035c:	b29b      	uxth	r3, r3
 800035e:	8193      	strh	r3, [r2, #12]
	setBaudRate(9600);
 8000360:	f44f 5116 	mov.w	r1, #9600	; 0x2580
 8000364:	6878      	ldr	r0, [r7, #4]
 8000366:	f000 f8df 	bl	8000528 <_ZN15STM32F446Usart311setBaudRateEm>
	USART3->CR1 |= USART_CR1_UE; //usart enable
 800036a:	4b0b      	ldr	r3, [pc, #44]	; (8000398 <_ZN15STM32F446Usart3C1Ev+0xf8>)
 800036c:	899b      	ldrh	r3, [r3, #12]
 800036e:	b29b      	uxth	r3, r3
 8000370:	4a09      	ldr	r2, [pc, #36]	; (8000398 <_ZN15STM32F446Usart3C1Ev+0xf8>)
 8000372:	f443 5300 	orr.w	r3, r3, #8192	; 0x2000
 8000376:	b29b      	uxth	r3, r3
 8000378:	8193      	strh	r3, [r2, #12]


	isTransmitting = false;
 800037a:	687b      	ldr	r3, [r7, #4]
 800037c:	2200      	movs	r2, #0
 800037e:	711a      	strb	r2, [r3, #4]
}
 8000380:	687b      	ldr	r3, [r7, #4]
 8000382:	4618      	mov	r0, r3
 8000384:	370c      	adds	r7, #12
 8000386:	46bd      	mov	sp, r7
 8000388:	bd90      	pop	{r4, r7, pc}
 800038a:	bf00      	nop
 800038c:	08001684 	.word	0x08001684
 8000390:	40023800 	.word	0x40023800
 8000394:	40020800 	.word	0x40020800
 8000398:	40004800 	.word	0x40004800

0800039c <_ZN15STM32F446Usart3D1Ev>:

STM32F446Usart3::~STM32F446Usart3()
 800039c:	b580      	push	{r7, lr}
 800039e:	b082      	sub	sp, #8
 80003a0:	af00      	add	r7, sp, #0
 80003a2:	6078      	str	r0, [r7, #4]
 80003a4:	4a16      	ldr	r2, [pc, #88]	; (8000400 <_ZN15STM32F446Usart3D1Ev+0x64>)
 80003a6:	687b      	ldr	r3, [r7, #4]
 80003a8:	601a      	str	r2, [r3, #0]
{
	if (instance)
 80003aa:	4b16      	ldr	r3, [pc, #88]	; (8000404 <_ZN15STM32F446Usart3D1Ev+0x68>)
 80003ac:	681b      	ldr	r3, [r3, #0]
 80003ae:	2b00      	cmp	r3, #0
 80003b0:	d00c      	beq.n	80003cc <_ZN15STM32F446Usart3D1Ev+0x30>
		delete instance;
 80003b2:	4b14      	ldr	r3, [pc, #80]	; (8000404 <_ZN15STM32F446Usart3D1Ev+0x68>)
 80003b4:	681b      	ldr	r3, [r3, #0]
 80003b6:	2b00      	cmp	r3, #0
 80003b8:	d008      	beq.n	80003cc <_ZN15STM32F446Usart3D1Ev+0x30>
 80003ba:	4b12      	ldr	r3, [pc, #72]	; (8000404 <_ZN15STM32F446Usart3D1Ev+0x68>)
 80003bc:	681a      	ldr	r2, [r3, #0]
 80003be:	4b11      	ldr	r3, [pc, #68]	; (8000404 <_ZN15STM32F446Usart3D1Ev+0x68>)
 80003c0:	681b      	ldr	r3, [r3, #0]
 80003c2:	681b      	ldr	r3, [r3, #0]
 80003c4:	3304      	adds	r3, #4
 80003c6:	681b      	ldr	r3, [r3, #0]
 80003c8:	4610      	mov	r0, r2
 80003ca:	4798      	blx	r3
	if(config)
 80003cc:	687b      	ldr	r3, [r7, #4]
 80003ce:	f8d3 3218 	ldr.w	r3, [r3, #536]	; 0x218
 80003d2:	2b00      	cmp	r3, #0
 80003d4:	d00f      	beq.n	80003f6 <_ZN15STM32F446Usart3D1Ev+0x5a>
		delete config;
 80003d6:	687b      	ldr	r3, [r7, #4]
 80003d8:	f8d3 3218 	ldr.w	r3, [r3, #536]	; 0x218
 80003dc:	2b00      	cmp	r3, #0
 80003de:	d00a      	beq.n	80003f6 <_ZN15STM32F446Usart3D1Ev+0x5a>
 80003e0:	687b      	ldr	r3, [r7, #4]
 80003e2:	f8d3 2218 	ldr.w	r2, [r3, #536]	; 0x218
 80003e6:	687b      	ldr	r3, [r7, #4]
 80003e8:	f8d3 3218 	ldr.w	r3, [r3, #536]	; 0x218
 80003ec:	681b      	ldr	r3, [r3, #0]
 80003ee:	3304      	adds	r3, #4
 80003f0:	681b      	ldr	r3, [r3, #0]
 80003f2:	4610      	mov	r0, r2
 80003f4:	4798      	blx	r3
}
 80003f6:	687b      	ldr	r3, [r7, #4]
 80003f8:	4618      	mov	r0, r3
 80003fa:	3708      	adds	r7, #8
 80003fc:	46bd      	mov	sp, r7
 80003fe:	bd80      	pop	{r7, pc}
 8000400:	08001684 	.word	0x08001684
 8000404:	2000009c 	.word	0x2000009c

08000408 <_ZN15STM32F446Usart3D0Ev>:
STM32F446Usart3::~STM32F446Usart3()
 8000408:	b580      	push	{r7, lr}
 800040a:	b082      	sub	sp, #8
 800040c:	af00      	add	r7, sp, #0
 800040e:	6078      	str	r0, [r7, #4]
}
 8000410:	6878      	ldr	r0, [r7, #4]
 8000412:	f7ff ffc3 	bl	800039c <_ZN15STM32F446Usart3D1Ev>
 8000416:	f44f 7107 	mov.w	r1, #540	; 0x21c
 800041a:	6878      	ldr	r0, [r7, #4]
 800041c:	f000 ff3d 	bl	800129a <_ZdlPvj>
 8000420:	687b      	ldr	r3, [r7, #4]
 8000422:	4618      	mov	r0, r3
 8000424:	3708      	adds	r7, #8
 8000426:	46bd      	mov	sp, r7
 8000428:	bd80      	pop	{r7, pc}
	...

0800042c <_ZN15STM32F446Usart311getInstanceEv>:
STM32F446Usart3 * STM32F446Usart3::getInstance()
{
 800042c:	b598      	push	{r3, r4, r7, lr}
 800042e:	af00      	add	r7, sp, #0
	if(instance==0)
 8000430:	4b09      	ldr	r3, [pc, #36]	; (8000458 <_ZN15STM32F446Usart311getInstanceEv+0x2c>)
 8000432:	681b      	ldr	r3, [r3, #0]
 8000434:	2b00      	cmp	r3, #0
 8000436:	d10a      	bne.n	800044e <_ZN15STM32F446Usart311getInstanceEv+0x22>
		instance=new STM32F446Usart3();
 8000438:	f44f 7007 	mov.w	r0, #540	; 0x21c
 800043c:	f000 ff2f 	bl	800129e <_Znwj>
 8000440:	4603      	mov	r3, r0
 8000442:	461c      	mov	r4, r3
 8000444:	4620      	mov	r0, r4
 8000446:	f7ff ff2b 	bl	80002a0 <_ZN15STM32F446Usart3C1Ev>
 800044a:	4b03      	ldr	r3, [pc, #12]	; (8000458 <_ZN15STM32F446Usart311getInstanceEv+0x2c>)
 800044c:	601c      	str	r4, [r3, #0]
	return instance;
 800044e:	4b02      	ldr	r3, [pc, #8]	; (8000458 <_ZN15STM32F446Usart311getInstanceEv+0x2c>)
 8000450:	681b      	ldr	r3, [r3, #0]
}
 8000452:	4618      	mov	r0, r3
 8000454:	bd98      	pop	{r3, r4, r7, pc}
 8000456:	bf00      	nop
 8000458:	2000009c 	.word	0x2000009c

0800045c <_ZN15STM32F446Usart35writeEh>:
void STM32F446Usart3::write(uint8_t data)
{
 800045c:	b580      	push	{r7, lr}
 800045e:	b082      	sub	sp, #8
 8000460:	af00      	add	r7, sp, #0
 8000462:	6078      	str	r0, [r7, #4]
 8000464:	460b      	mov	r3, r1
 8000466:	70fb      	strb	r3, [r7, #3]
	buffTx.add(data);
 8000468:	687b      	ldr	r3, [r7, #4]
 800046a:	f503 7388 	add.w	r3, r3, #272	; 0x110
 800046e:	78fa      	ldrb	r2, [r7, #3]
 8000470:	4611      	mov	r1, r2
 8000472:	4618      	mov	r0, r3
 8000474:	f000 f900 	bl	8000678 <_ZN8BuffFifoImLt64EE3addEm>
	if(!isTransmitting)
 8000478:	687b      	ldr	r3, [r7, #4]
 800047a:	791b      	ldrb	r3, [r3, #4]
 800047c:	f083 0301 	eor.w	r3, r3, #1
 8000480:	b2db      	uxtb	r3, r3
 8000482:	2b00      	cmp	r3, #0
 8000484:	d00a      	beq.n	800049c <_ZN15STM32F446Usart35writeEh+0x40>
	{
		isTransmitting =true;
 8000486:	687b      	ldr	r3, [r7, #4]
 8000488:	2201      	movs	r2, #1
 800048a:	711a      	strb	r2, [r3, #4]
		USART3->CR1 |= USART_CR1_TXEIE;
 800048c:	4b05      	ldr	r3, [pc, #20]	; (80004a4 <_ZN15STM32F446Usart35writeEh+0x48>)
 800048e:	899b      	ldrh	r3, [r3, #12]
 8000490:	b29b      	uxth	r3, r3
 8000492:	4a04      	ldr	r2, [pc, #16]	; (80004a4 <_ZN15STM32F446Usart35writeEh+0x48>)
 8000494:	f043 0380 	orr.w	r3, r3, #128	; 0x80
 8000498:	b29b      	uxth	r3, r3
 800049a:	8193      	strh	r3, [r2, #12]
	}
}
 800049c:	bf00      	nop
 800049e:	3708      	adds	r7, #8
 80004a0:	46bd      	mov	sp, r7
 80004a2:	bd80      	pop	{r7, pc}
 80004a4:	40004800 	.word	0x40004800

080004a8 <_ZN15STM32F446Usart35writeEPc>:
void STM32F446Usart3::write(char *string)
{
 80004a8:	b580      	push	{r7, lr}
 80004aa:	b082      	sub	sp, #8
 80004ac:	af00      	add	r7, sp, #0
 80004ae:	6078      	str	r0, [r7, #4]
 80004b0:	6039      	str	r1, [r7, #0]

	while(*string)
 80004b2:	683b      	ldr	r3, [r7, #0]
 80004b4:	781b      	ldrb	r3, [r3, #0]
 80004b6:	2b00      	cmp	r3, #0
 80004b8:	d008      	beq.n	80004cc <_ZN15STM32F446Usart35writeEPc+0x24>
	{
		write(*string++);
 80004ba:	683b      	ldr	r3, [r7, #0]
 80004bc:	1c5a      	adds	r2, r3, #1
 80004be:	603a      	str	r2, [r7, #0]
 80004c0:	781b      	ldrb	r3, [r3, #0]
 80004c2:	4619      	mov	r1, r3
 80004c4:	6878      	ldr	r0, [r7, #4]
 80004c6:	f7ff ffc9 	bl	800045c <_ZN15STM32F446Usart35writeEh>
	while(*string)
 80004ca:	e7f2      	b.n	80004b2 <_ZN15STM32F446Usart35writeEPc+0xa>
	}

}
 80004cc:	bf00      	nop
 80004ce:	3708      	adds	r7, #8
 80004d0:	46bd      	mov	sp, r7
 80004d2:	bd80      	pop	{r7, pc}

080004d4 <_ZN15STM32F446Usart34readEv>:
uint8_t STM32F446Usart3:: read(void)
{
 80004d4:	b580      	push	{r7, lr}
 80004d6:	b082      	sub	sp, #8
 80004d8:	af00      	add	r7, sp, #0
 80004da:	6078      	str	r0, [r7, #4]
	if(buffRx.isEmpty())
 80004dc:	687b      	ldr	r3, [r7, #4]
 80004de:	3308      	adds	r3, #8
 80004e0:	4618      	mov	r0, r3
 80004e2:	f000 f8ea 	bl	80006ba <_ZNK8BuffFifoImLt64EE7isEmptyEv>
 80004e6:	4603      	mov	r3, r0
 80004e8:	2b00      	cmp	r3, #0
 80004ea:	d001      	beq.n	80004f0 <_ZN15STM32F446Usart34readEv+0x1c>
		return 0;
 80004ec:	2300      	movs	r3, #0
 80004ee:	e006      	b.n	80004fe <_ZN15STM32F446Usart34readEv+0x2a>
	return buffRx.rem();
 80004f0:	687b      	ldr	r3, [r7, #4]
 80004f2:	3308      	adds	r3, #8
 80004f4:	4618      	mov	r0, r3
 80004f6:	f000 f8f3 	bl	80006e0 <_ZN8BuffFifoImLt64EE3remEv>
 80004fa:	4603      	mov	r3, r0
 80004fc:	b2db      	uxtb	r3, r3
}
 80004fe:	4618      	mov	r0, r3
 8000500:	3708      	adds	r7, #8
 8000502:	46bd      	mov	sp, r7
 8000504:	bd80      	pop	{r7, pc}

08000506 <_ZNK15STM32F446Usart313dataAvailableEv>:
bool STM32F446Usart3::dataAvailable() const
{
 8000506:	b580      	push	{r7, lr}
 8000508:	b082      	sub	sp, #8
 800050a:	af00      	add	r7, sp, #0
 800050c:	6078      	str	r0, [r7, #4]
	return !buffRx.isEmpty();
 800050e:	687b      	ldr	r3, [r7, #4]
 8000510:	3308      	adds	r3, #8
 8000512:	4618      	mov	r0, r3
 8000514:	f000 f8d1 	bl	80006ba <_ZNK8BuffFifoImLt64EE7isEmptyEv>
 8000518:	4603      	mov	r3, r0
 800051a:	f083 0301 	eor.w	r3, r3, #1
 800051e:	b2db      	uxtb	r3, r3
}
 8000520:	4618      	mov	r0, r3
 8000522:	3708      	adds	r7, #8
 8000524:	46bd      	mov	sp, r7
 8000526:	bd80      	pop	{r7, pc}

08000528 <_ZN15STM32F446Usart311setBaudRateEm>:
void STM32F446Usart3::setBaudRate(uint32_t baudrate)
{
 8000528:	b480      	push	{r7}
 800052a:	b083      	sub	sp, #12
 800052c:	af00      	add	r7, sp, #0
 800052e:	6078      	str	r0, [r7, #4]
 8000530:	6039      	str	r1, [r7, #0]
	if(baudrate > 2810000)
 8000532:	683b      	ldr	r3, [r7, #0]
 8000534:	4a14      	ldr	r2, [pc, #80]	; (8000588 <_ZN15STM32F446Usart311setBaudRateEm+0x60>)
 8000536:	4293      	cmp	r3, r2
 8000538:	d90a      	bls.n	8000550 <_ZN15STM32F446Usart311setBaudRateEm+0x28>
		USART3->CR1 |= USART_CR1_OVER8;
 800053a:	4b14      	ldr	r3, [pc, #80]	; (800058c <_ZN15STM32F446Usart311setBaudRateEm+0x64>)
 800053c:	899b      	ldrh	r3, [r3, #12]
 800053e:	b29b      	uxth	r3, r3
 8000540:	4a12      	ldr	r2, [pc, #72]	; (800058c <_ZN15STM32F446Usart311setBaudRateEm+0x64>)
 8000542:	ea6f 4343 	mvn.w	r3, r3, lsl #17
 8000546:	ea6f 4353 	mvn.w	r3, r3, lsr #17
 800054a:	b29b      	uxth	r3, r3
 800054c:	8193      	strh	r3, [r2, #12]
 800054e:	e007      	b.n	8000560 <_ZN15STM32F446Usart311setBaudRateEm+0x38>
	else
		USART3->CR1 &= ~USART_CR1_OVER8;
 8000550:	4b0e      	ldr	r3, [pc, #56]	; (800058c <_ZN15STM32F446Usart311setBaudRateEm+0x64>)
 8000552:	899b      	ldrh	r3, [r3, #12]
 8000554:	b29b      	uxth	r3, r3
 8000556:	4a0d      	ldr	r2, [pc, #52]	; (800058c <_ZN15STM32F446Usart311setBaudRateEm+0x64>)
 8000558:	f3c3 030e 	ubfx	r3, r3, #0, #15
 800055c:	b29b      	uxth	r3, r3
 800055e:	8193      	strh	r3, [r2, #12]

	USART3->BRR |= (SystemCoreClock>>2) / baudrate;
 8000560:	4b0a      	ldr	r3, [pc, #40]	; (800058c <_ZN15STM32F446Usart311setBaudRateEm+0x64>)
 8000562:	891b      	ldrh	r3, [r3, #8]
 8000564:	b29a      	uxth	r2, r3
 8000566:	4b0a      	ldr	r3, [pc, #40]	; (8000590 <_ZN15STM32F446Usart311setBaudRateEm+0x68>)
 8000568:	681b      	ldr	r3, [r3, #0]
 800056a:	0899      	lsrs	r1, r3, #2
 800056c:	683b      	ldr	r3, [r7, #0]
 800056e:	fbb1 f3f3 	udiv	r3, r1, r3
 8000572:	b29b      	uxth	r3, r3
 8000574:	4905      	ldr	r1, [pc, #20]	; (800058c <_ZN15STM32F446Usart311setBaudRateEm+0x64>)
 8000576:	4313      	orrs	r3, r2
 8000578:	b29b      	uxth	r3, r3
 800057a:	810b      	strh	r3, [r1, #8]
}
 800057c:	bf00      	nop
 800057e:	370c      	adds	r7, #12
 8000580:	46bd      	mov	sp, r7
 8000582:	f85d 7b04 	ldr.w	r7, [sp], #4
 8000586:	4770      	bx	lr
 8000588:	002ae090 	.word	0x002ae090
 800058c:	40004800 	.word	0x40004800
 8000590:	20000008 	.word	0x20000008

08000594 <USART3_IRQHandler>:

extern "C"
{
void USART3_IRQHandler(void)
{
 8000594:	b580      	push	{r7, lr}
 8000596:	b082      	sub	sp, #8
 8000598:	af00      	add	r7, sp, #0
	volatile unsigned int usartStatus;
	char tmp;
	//recupere le statu de l'usart
	usartStatus = USART3->SR;
 800059a:	4b2f      	ldr	r3, [pc, #188]	; (8000658 <USART3_IRQHandler+0xc4>)
 800059c:	881b      	ldrh	r3, [r3, #0]
 800059e:	b29b      	uxth	r3, r3
 80005a0:	603b      	str	r3, [r7, #0]

	if(usartStatus & USART_SR_RXNE)
 80005a2:	683b      	ldr	r3, [r7, #0]
 80005a4:	f003 0320 	and.w	r3, r3, #32
 80005a8:	2b00      	cmp	r3, #0
 80005aa:	bf14      	ite	ne
 80005ac:	2301      	movne	r3, #1
 80005ae:	2300      	moveq	r3, #0
 80005b0:	b2db      	uxtb	r3, r3
 80005b2:	2b00      	cmp	r3, #0
 80005b4:	d013      	beq.n	80005de <USART3_IRQHandler+0x4a>
	{
		USART3->SR &= ~USART_SR_RXNE;
 80005b6:	4b28      	ldr	r3, [pc, #160]	; (8000658 <USART3_IRQHandler+0xc4>)
 80005b8:	881b      	ldrh	r3, [r3, #0]
 80005ba:	b29b      	uxth	r3, r3
 80005bc:	4a26      	ldr	r2, [pc, #152]	; (8000658 <USART3_IRQHandler+0xc4>)
 80005be:	f023 0320 	bic.w	r3, r3, #32
 80005c2:	b29b      	uxth	r3, r3
 80005c4:	8013      	strh	r3, [r2, #0]
		tmp =USART3->DR;
 80005c6:	4b24      	ldr	r3, [pc, #144]	; (8000658 <USART3_IRQHandler+0xc4>)
 80005c8:	889b      	ldrh	r3, [r3, #4]
 80005ca:	b29b      	uxth	r3, r3
 80005cc:	71fb      	strb	r3, [r7, #7]
		STM32F446Usart3::instance->buffRx.add(tmp);
 80005ce:	4b23      	ldr	r3, [pc, #140]	; (800065c <USART3_IRQHandler+0xc8>)
 80005d0:	681b      	ldr	r3, [r3, #0]
 80005d2:	3308      	adds	r3, #8
 80005d4:	79fa      	ldrb	r2, [r7, #7]
 80005d6:	4611      	mov	r1, r2
 80005d8:	4618      	mov	r0, r3
 80005da:	f000 f84d 	bl	8000678 <_ZN8BuffFifoImLt64EE3addEm>
	}
	if(usartStatus & USART_SR_TXE)
 80005de:	683b      	ldr	r3, [r7, #0]
 80005e0:	f003 0380 	and.w	r3, r3, #128	; 0x80
 80005e4:	2b00      	cmp	r3, #0
 80005e6:	bf14      	ite	ne
 80005e8:	2301      	movne	r3, #1
 80005ea:	2300      	moveq	r3, #0
 80005ec:	b2db      	uxtb	r3, r3
 80005ee:	2b00      	cmp	r3, #0
 80005f0:	d02d      	beq.n	800064e <USART3_IRQHandler+0xba>
	{
		USART3->SR &= ~USART_CR1_TXEIE;
 80005f2:	4b19      	ldr	r3, [pc, #100]	; (8000658 <USART3_IRQHandler+0xc4>)
 80005f4:	881b      	ldrh	r3, [r3, #0]
 80005f6:	b29b      	uxth	r3, r3
 80005f8:	4a17      	ldr	r2, [pc, #92]	; (8000658 <USART3_IRQHandler+0xc4>)
 80005fa:	f023 0380 	bic.w	r3, r3, #128	; 0x80
 80005fe:	b29b      	uxth	r3, r3
 8000600:	8013      	strh	r3, [r2, #0]
		if(STM32F446Usart3::instance->buffTx.isEmpty())
 8000602:	4b16      	ldr	r3, [pc, #88]	; (800065c <USART3_IRQHandler+0xc8>)
 8000604:	681b      	ldr	r3, [r3, #0]
 8000606:	f503 7388 	add.w	r3, r3, #272	; 0x110
 800060a:	4618      	mov	r0, r3
 800060c:	f000 f855 	bl	80006ba <_ZNK8BuffFifoImLt64EE7isEmptyEv>
 8000610:	4603      	mov	r3, r0
 8000612:	2b00      	cmp	r3, #0
 8000614:	d00c      	beq.n	8000630 <USART3_IRQHandler+0x9c>
		{
			STM32F446Usart3::instance->isTransmitting =false;
 8000616:	4b11      	ldr	r3, [pc, #68]	; (800065c <USART3_IRQHandler+0xc8>)
 8000618:	681b      	ldr	r3, [r3, #0]
 800061a:	2200      	movs	r2, #0
 800061c:	711a      	strb	r2, [r3, #4]
			USART3->CR1 &= (~USART_CR1_TXEIE);
 800061e:	4b0e      	ldr	r3, [pc, #56]	; (8000658 <USART3_IRQHandler+0xc4>)
 8000620:	899b      	ldrh	r3, [r3, #12]
 8000622:	b29b      	uxth	r3, r3
 8000624:	4a0c      	ldr	r2, [pc, #48]	; (8000658 <USART3_IRQHandler+0xc4>)
 8000626:	f023 0380 	bic.w	r3, r3, #128	; 0x80
 800062a:	b29b      	uxth	r3, r3
 800062c:	8193      	strh	r3, [r2, #12]

			USART3->DR = STM32F446Usart3::instance->buffTx.rem();
			STM32F446Usart3::instance->isTransmitting= true;
		}
	}
}
 800062e:	e00e      	b.n	800064e <USART3_IRQHandler+0xba>
			USART3->DR = STM32F446Usart3::instance->buffTx.rem();
 8000630:	4b0a      	ldr	r3, [pc, #40]	; (800065c <USART3_IRQHandler+0xc8>)
 8000632:	681b      	ldr	r3, [r3, #0]
 8000634:	f503 7388 	add.w	r3, r3, #272	; 0x110
 8000638:	4618      	mov	r0, r3
 800063a:	f000 f851 	bl	80006e0 <_ZN8BuffFifoImLt64EE3remEv>
 800063e:	4602      	mov	r2, r0
 8000640:	4b05      	ldr	r3, [pc, #20]	; (8000658 <USART3_IRQHandler+0xc4>)
 8000642:	b292      	uxth	r2, r2
 8000644:	809a      	strh	r2, [r3, #4]
			STM32F446Usart3::instance->isTransmitting= true;
 8000646:	4b05      	ldr	r3, [pc, #20]	; (800065c <USART3_IRQHandler+0xc8>)
 8000648:	681b      	ldr	r3, [r3, #0]
 800064a:	2201      	movs	r2, #1
 800064c:	711a      	strb	r2, [r3, #4]
}
 800064e:	bf00      	nop
 8000650:	3708      	adds	r7, #8
 8000652:	46bd      	mov	sp, r7
 8000654:	bd80      	pop	{r7, pc}
 8000656:	bf00      	nop
 8000658:	40004800 	.word	0x40004800
 800065c:	2000009c 	.word	0x2000009c

08000660 <_ZN8BuffFifoImLt64EEC1Ev>:
#include <stdlib.h>
template <class T, uint16_t nSize>
class BuffFifo {
public:

	BuffFifo()
 8000660:	b580      	push	{r7, lr}
 8000662:	b082      	sub	sp, #8
 8000664:	af00      	add	r7, sp, #0
 8000666:	6078      	str	r0, [r7, #4]
	{
        reset();
 8000668:	6878      	ldr	r0, [r7, #4]
 800066a:	f000 f858 	bl	800071e <_ZN8BuffFifoImLt64EE5resetEv>
    }
 800066e:	687b      	ldr	r3, [r7, #4]
 8000670:	4618      	mov	r0, r3
 8000672:	3708      	adds	r7, #8
 8000674:	46bd      	mov	sp, r7
 8000676:	bd80      	pop	{r7, pc}

08000678 <_ZN8BuffFifoImLt64EE3addEm>:
    {
        in = 0;
        out = 0;
    }

    bool add(T e)
 8000678:	b480      	push	{r7}
 800067a:	b083      	sub	sp, #12
 800067c:	af00      	add	r7, sp, #0
 800067e:	6078      	str	r0, [r7, #4]
 8000680:	6039      	str	r1, [r7, #0]
    {
        if( (in + 1) != out )
 8000682:	687b      	ldr	r3, [r7, #4]
 8000684:	681b      	ldr	r3, [r3, #0]
 8000686:	1c5a      	adds	r2, r3, #1
 8000688:	687b      	ldr	r3, [r7, #4]
 800068a:	685b      	ldr	r3, [r3, #4]
 800068c:	429a      	cmp	r2, r3
 800068e:	d00d      	beq.n	80006ac <_ZN8BuffFifoImLt64EE3addEm+0x34>
        {
            data[in++ & (nSize-1)] = e;
 8000690:	687b      	ldr	r3, [r7, #4]
 8000692:	681b      	ldr	r3, [r3, #0]
 8000694:	1c59      	adds	r1, r3, #1
 8000696:	687a      	ldr	r2, [r7, #4]
 8000698:	6011      	str	r1, [r2, #0]
 800069a:	f003 023f 	and.w	r2, r3, #63	; 0x3f
 800069e:	687b      	ldr	r3, [r7, #4]
 80006a0:	3202      	adds	r2, #2
 80006a2:	6839      	ldr	r1, [r7, #0]
 80006a4:	f843 1022 	str.w	r1, [r3, r2, lsl #2]
            return 1;
 80006a8:	2301      	movs	r3, #1
 80006aa:	e000      	b.n	80006ae <_ZN8BuffFifoImLt64EE3addEm+0x36>
        }
        return 0;
 80006ac:	2300      	movs	r3, #0
    }
 80006ae:	4618      	mov	r0, r3
 80006b0:	370c      	adds	r7, #12
 80006b2:	46bd      	mov	sp, r7
 80006b4:	f85d 7b04 	ldr.w	r7, [sp], #4
 80006b8:	4770      	bx	lr

080006ba <_ZNK8BuffFifoImLt64EE7isEmptyEv>:
            return data[out++ & (nSize-1)] ;
        }
        return data[0];
    }

    bool isEmpty() const{
 80006ba:	b480      	push	{r7}
 80006bc:	b083      	sub	sp, #12
 80006be:	af00      	add	r7, sp, #0
 80006c0:	6078      	str	r0, [r7, #4]
        return (out == in);
 80006c2:	687b      	ldr	r3, [r7, #4]
 80006c4:	685a      	ldr	r2, [r3, #4]
 80006c6:	687b      	ldr	r3, [r7, #4]
 80006c8:	681b      	ldr	r3, [r3, #0]
 80006ca:	429a      	cmp	r2, r3
 80006cc:	bf0c      	ite	eq
 80006ce:	2301      	moveq	r3, #1
 80006d0:	2300      	movne	r3, #0
 80006d2:	b2db      	uxtb	r3, r3
    }
 80006d4:	4618      	mov	r0, r3
 80006d6:	370c      	adds	r7, #12
 80006d8:	46bd      	mov	sp, r7
 80006da:	f85d 7b04 	ldr.w	r7, [sp], #4
 80006de:	4770      	bx	lr

080006e0 <_ZN8BuffFifoImLt64EE3remEv>:
    T rem(){
 80006e0:	b580      	push	{r7, lr}
 80006e2:	b082      	sub	sp, #8
 80006e4:	af00      	add	r7, sp, #0
 80006e6:	6078      	str	r0, [r7, #4]
        if (!isEmpty())
 80006e8:	6878      	ldr	r0, [r7, #4]
 80006ea:	f7ff ffe6 	bl	80006ba <_ZNK8BuffFifoImLt64EE7isEmptyEv>
 80006ee:	4603      	mov	r3, r0
 80006f0:	f083 0301 	eor.w	r3, r3, #1
 80006f4:	b2db      	uxtb	r3, r3
 80006f6:	2b00      	cmp	r3, #0
 80006f8:	d00b      	beq.n	8000712 <_ZN8BuffFifoImLt64EE3remEv+0x32>
            return data[out++ & (nSize-1)] ;
 80006fa:	687b      	ldr	r3, [r7, #4]
 80006fc:	685b      	ldr	r3, [r3, #4]
 80006fe:	1c59      	adds	r1, r3, #1
 8000700:	687a      	ldr	r2, [r7, #4]
 8000702:	6051      	str	r1, [r2, #4]
 8000704:	f003 023f 	and.w	r2, r3, #63	; 0x3f
 8000708:	687b      	ldr	r3, [r7, #4]
 800070a:	3202      	adds	r2, #2
 800070c:	f853 3022 	ldr.w	r3, [r3, r2, lsl #2]
 8000710:	e001      	b.n	8000716 <_ZN8BuffFifoImLt64EE3remEv+0x36>
        return data[0];
 8000712:	687b      	ldr	r3, [r7, #4]
 8000714:	689b      	ldr	r3, [r3, #8]
    }
 8000716:	4618      	mov	r0, r3
 8000718:	3708      	adds	r7, #8
 800071a:	46bd      	mov	sp, r7
 800071c:	bd80      	pop	{r7, pc}

0800071e <_ZN8BuffFifoImLt64EE5resetEv>:
    void reset()
 800071e:	b480      	push	{r7}
 8000720:	b083      	sub	sp, #12
 8000722:	af00      	add	r7, sp, #0
 8000724:	6078      	str	r0, [r7, #4]
        in = 0;
 8000726:	687b      	ldr	r3, [r7, #4]
 8000728:	2200      	movs	r2, #0
 800072a:	601a      	str	r2, [r3, #0]
        out = 0;
 800072c:	687b      	ldr	r3, [r7, #4]
 800072e:	2200      	movs	r2, #0
 8000730:	605a      	str	r2, [r3, #4]
    }
 8000732:	bf00      	nop
 8000734:	370c      	adds	r7, #12
 8000736:	46bd      	mov	sp, r7
 8000738:	f85d 7b04 	ldr.w	r7, [sp], #4
 800073c:	4770      	bx	lr
	...

08000740 <NVIC_EnableIRQ>:
{
 8000740:	b480      	push	{r7}
 8000742:	b083      	sub	sp, #12
 8000744:	af00      	add	r7, sp, #0
 8000746:	4603      	mov	r3, r0
 8000748:	71fb      	strb	r3, [r7, #7]
  NVIC->ISER[(((uint32_t)(int32_t)IRQn) >> 5UL)] = (uint32_t)(1UL << (((uint32_t)(int32_t)IRQn) & 0x1FUL));
 800074a:	f997 3007 	ldrsb.w	r3, [r7, #7]
 800074e:	f003 021f 	and.w	r2, r3, #31
 8000752:	4907      	ldr	r1, [pc, #28]	; (8000770 <NVIC_EnableIRQ+0x30>)
 8000754:	f997 3007 	ldrsb.w	r3, [r7, #7]
 8000758:	095b      	lsrs	r3, r3, #5
 800075a:	2001      	movs	r0, #1
 800075c:	fa00 f202 	lsl.w	r2, r0, r2
 8000760:	f841 2023 	str.w	r2, [r1, r3, lsl #2]
}
 8000764:	bf00      	nop
 8000766:	370c      	adds	r7, #12
 8000768:	46bd      	mov	sp, r7
 800076a:	f85d 7b04 	ldr.w	r7, [sp], #4
 800076e:	4770      	bx	lr
 8000770:	e000e100 	.word	0xe000e100

08000774 <NVIC_SetPriority>:
{
 8000774:	b480      	push	{r7}
 8000776:	b083      	sub	sp, #12
 8000778:	af00      	add	r7, sp, #0
 800077a:	4603      	mov	r3, r0
 800077c:	6039      	str	r1, [r7, #0]
 800077e:	71fb      	strb	r3, [r7, #7]
  if((int32_t)IRQn < 0) {
 8000780:	f997 3007 	ldrsb.w	r3, [r7, #7]
 8000784:	2b00      	cmp	r3, #0
 8000786:	da0c      	bge.n	80007a2 <NVIC_SetPriority+0x2e>
    SCB->SHP[(((uint32_t)(int32_t)IRQn) & 0xFUL)-4UL] = (uint8_t)((priority << (8 - __NVIC_PRIO_BITS)) & (uint32_t)0xFFUL);
 8000788:	683b      	ldr	r3, [r7, #0]
 800078a:	b2da      	uxtb	r2, r3
 800078c:	490d      	ldr	r1, [pc, #52]	; (80007c4 <NVIC_SetPriority+0x50>)
 800078e:	f997 3007 	ldrsb.w	r3, [r7, #7]
 8000792:	f003 030f 	and.w	r3, r3, #15
 8000796:	3b04      	subs	r3, #4
 8000798:	0112      	lsls	r2, r2, #4
 800079a:	b2d2      	uxtb	r2, r2
 800079c:	440b      	add	r3, r1
 800079e:	761a      	strb	r2, [r3, #24]
}
 80007a0:	e009      	b.n	80007b6 <NVIC_SetPriority+0x42>
    NVIC->IP[((uint32_t)(int32_t)IRQn)]               = (uint8_t)((priority << (8 - __NVIC_PRIO_BITS)) & (uint32_t)0xFFUL);
 80007a2:	683b      	ldr	r3, [r7, #0]
 80007a4:	b2da      	uxtb	r2, r3
 80007a6:	4908      	ldr	r1, [pc, #32]	; (80007c8 <NVIC_SetPriority+0x54>)
 80007a8:	f997 3007 	ldrsb.w	r3, [r7, #7]
 80007ac:	0112      	lsls	r2, r2, #4
 80007ae:	b2d2      	uxtb	r2, r2
 80007b0:	440b      	add	r3, r1
 80007b2:	f883 2300 	strb.w	r2, [r3, #768]	; 0x300
}
 80007b6:	bf00      	nop
 80007b8:	370c      	adds	r7, #12
 80007ba:	46bd      	mov	sp, r7
 80007bc:	f85d 7b04 	ldr.w	r7, [sp], #4
 80007c0:	4770      	bx	lr
 80007c2:	bf00      	nop
 80007c4:	e000ed00 	.word	0xe000ed00
 80007c8:	e000e100 	.word	0xe000e100

080007cc <_ZN5TimerD1Ev>:
	 */
	Timer(TIM_TypeDef * tmr, uint32_t us,bool interruptEnable);
	/*
	 * Destructeur
	 */
	virtual ~Timer(){};
 80007cc:	b480      	push	{r7}
 80007ce:	b083      	sub	sp, #12
 80007d0:	af00      	add	r7, sp, #0
 80007d2:	6078      	str	r0, [r7, #4]
 80007d4:	4a04      	ldr	r2, [pc, #16]	; (80007e8 <_ZN5TimerD1Ev+0x1c>)
 80007d6:	687b      	ldr	r3, [r7, #4]
 80007d8:	601a      	str	r2, [r3, #0]
 80007da:	687b      	ldr	r3, [r7, #4]
 80007dc:	4618      	mov	r0, r3
 80007de:	370c      	adds	r7, #12
 80007e0:	46bd      	mov	sp, r7
 80007e2:	f85d 7b04 	ldr.w	r7, [sp], #4
 80007e6:	4770      	bx	lr
 80007e8:	080016b4 	.word	0x080016b4

080007ec <_ZN5TimerD0Ev>:
 80007ec:	b580      	push	{r7, lr}
 80007ee:	b082      	sub	sp, #8
 80007f0:	af00      	add	r7, sp, #0
 80007f2:	6078      	str	r0, [r7, #4]
 80007f4:	6878      	ldr	r0, [r7, #4]
 80007f6:	f7ff ffe9 	bl	80007cc <_ZN5TimerD1Ev>
 80007fa:	2108      	movs	r1, #8
 80007fc:	6878      	ldr	r0, [r7, #4]
 80007fe:	f000 fd4c 	bl	800129a <_ZdlPvj>
 8000802:	687b      	ldr	r3, [r7, #4]
 8000804:	4618      	mov	r0, r3
 8000806:	3708      	adds	r7, #8
 8000808:	46bd      	mov	sp, r7
 800080a:	bd80      	pop	{r7, pc}

0800080c <_ZN5TimerC1EP11TIM_TypeDefmb>:
 *      Author: Tristan Franc
 */

#include "Timer_PWM.h"

Timer::Timer(TIM_TypeDef * tmr, uint32_t us,bool interruptEnable)
 800080c:	b580      	push	{r7, lr}
 800080e:	b084      	sub	sp, #16
 8000810:	af00      	add	r7, sp, #0
 8000812:	60f8      	str	r0, [r7, #12]
 8000814:	60b9      	str	r1, [r7, #8]
 8000816:	607a      	str	r2, [r7, #4]
 8000818:	70fb      	strb	r3, [r7, #3]
 800081a:	4a42      	ldr	r2, [pc, #264]	; (8000924 <_ZN5TimerC1EP11TIM_TypeDefmb+0x118>)
 800081c:	68fb      	ldr	r3, [r7, #12]
 800081e:	601a      	str	r2, [r3, #0]
{
	timer = tmr;
 8000820:	68fb      	ldr	r3, [r7, #12]
 8000822:	68ba      	ldr	r2, [r7, #8]
 8000824:	605a      	str	r2, [r3, #4]
	if(tmr== TIM1)
 8000826:	68bb      	ldr	r3, [r7, #8]
 8000828:	4a3f      	ldr	r2, [pc, #252]	; (8000928 <_ZN5TimerC1EP11TIM_TypeDefmb+0x11c>)
 800082a:	4293      	cmp	r3, r2
 800082c:	d10f      	bne.n	800084e <_ZN5TimerC1EP11TIM_TypeDefmb+0x42>
	{
		RCC->APB2ENR |= RCC_APB2ENR_TIM1EN;
 800082e:	4b3f      	ldr	r3, [pc, #252]	; (800092c <_ZN5TimerC1EP11TIM_TypeDefmb+0x120>)
 8000830:	6c5b      	ldr	r3, [r3, #68]	; 0x44
 8000832:	4a3e      	ldr	r2, [pc, #248]	; (800092c <_ZN5TimerC1EP11TIM_TypeDefmb+0x120>)
 8000834:	f043 0301 	orr.w	r3, r3, #1
 8000838:	6453      	str	r3, [r2, #68]	; 0x44
		if(interruptEnable)
 800083a:	78fb      	ldrb	r3, [r7, #3]
 800083c:	2b00      	cmp	r3, #0
 800083e:	d006      	beq.n	800084e <_ZN5TimerC1EP11TIM_TypeDefmb+0x42>
		{
			NVIC_EnableIRQ(TIM1_CC_IRQn);
 8000840:	201b      	movs	r0, #27
 8000842:	f7ff ff7d 	bl	8000740 <NVIC_EnableIRQ>
			NVIC_SetPriority(TIM1_CC_IRQn, 2);
 8000846:	2102      	movs	r1, #2
 8000848:	201b      	movs	r0, #27
 800084a:	f7ff ff93 	bl	8000774 <NVIC_SetPriority>
		}
	}
	if ( tmr == TIM2)
 800084e:	68bb      	ldr	r3, [r7, #8]
 8000850:	f1b3 4f80 	cmp.w	r3, #1073741824	; 0x40000000
 8000854:	d10f      	bne.n	8000876 <_ZN5TimerC1EP11TIM_TypeDefmb+0x6a>
	{
		RCC->APB1ENR |= RCC_APB1ENR_TIM2EN;
 8000856:	4b35      	ldr	r3, [pc, #212]	; (800092c <_ZN5TimerC1EP11TIM_TypeDefmb+0x120>)
 8000858:	6c1b      	ldr	r3, [r3, #64]	; 0x40
 800085a:	4a34      	ldr	r2, [pc, #208]	; (800092c <_ZN5TimerC1EP11TIM_TypeDefmb+0x120>)
 800085c:	f043 0301 	orr.w	r3, r3, #1
 8000860:	6413      	str	r3, [r2, #64]	; 0x40
		if(interruptEnable)
 8000862:	78fb      	ldrb	r3, [r7, #3]
 8000864:	2b00      	cmp	r3, #0
 8000866:	d006      	beq.n	8000876 <_ZN5TimerC1EP11TIM_TypeDefmb+0x6a>
		{
			NVIC_EnableIRQ(TIM2_IRQn);
 8000868:	201c      	movs	r0, #28
 800086a:	f7ff ff69 	bl	8000740 <NVIC_EnableIRQ>
			NVIC_SetPriority(TIM2_IRQn,1);
 800086e:	2101      	movs	r1, #1
 8000870:	201c      	movs	r0, #28
 8000872:	f7ff ff7f 	bl	8000774 <NVIC_SetPriority>
		}
	}
	if ( tmr == TIM3)
 8000876:	68bb      	ldr	r3, [r7, #8]
 8000878:	4a2d      	ldr	r2, [pc, #180]	; (8000930 <_ZN5TimerC1EP11TIM_TypeDefmb+0x124>)
 800087a:	4293      	cmp	r3, r2
 800087c:	d10f      	bne.n	800089e <_ZN5TimerC1EP11TIM_TypeDefmb+0x92>
	{
		RCC->APB1ENR |= RCC_APB1ENR_TIM3EN;
 800087e:	4b2b      	ldr	r3, [pc, #172]	; (800092c <_ZN5TimerC1EP11TIM_TypeDefmb+0x120>)
 8000880:	6c1b      	ldr	r3, [r3, #64]	; 0x40
 8000882:	4a2a      	ldr	r2, [pc, #168]	; (800092c <_ZN5TimerC1EP11TIM_TypeDefmb+0x120>)
 8000884:	f043 0302 	orr.w	r3, r3, #2
 8000888:	6413      	str	r3, [r2, #64]	; 0x40
		if(interruptEnable)
 800088a:	78fb      	ldrb	r3, [r7, #3]
 800088c:	2b00      	cmp	r3, #0
 800088e:	d006      	beq.n	800089e <_ZN5TimerC1EP11TIM_TypeDefmb+0x92>
		{
			NVIC_EnableIRQ(TIM3_IRQn);
 8000890:	201d      	movs	r0, #29
 8000892:	f7ff ff55 	bl	8000740 <NVIC_EnableIRQ>
			NVIC_SetPriority(TIM3_IRQn,1);
 8000896:	2101      	movs	r1, #1
 8000898:	201d      	movs	r0, #29
 800089a:	f7ff ff6b 	bl	8000774 <NVIC_SetPriority>
		}
	}
	if ( tmr == TIM4)
 800089e:	68bb      	ldr	r3, [r7, #8]
 80008a0:	4a24      	ldr	r2, [pc, #144]	; (8000934 <_ZN5TimerC1EP11TIM_TypeDefmb+0x128>)
 80008a2:	4293      	cmp	r3, r2
 80008a4:	d10f      	bne.n	80008c6 <_ZN5TimerC1EP11TIM_TypeDefmb+0xba>
	{
		RCC->APB1ENR |= RCC_APB1ENR_TIM4EN;
 80008a6:	4b21      	ldr	r3, [pc, #132]	; (800092c <_ZN5TimerC1EP11TIM_TypeDefmb+0x120>)
 80008a8:	6c1b      	ldr	r3, [r3, #64]	; 0x40
 80008aa:	4a20      	ldr	r2, [pc, #128]	; (800092c <_ZN5TimerC1EP11TIM_TypeDefmb+0x120>)
 80008ac:	f043 0304 	orr.w	r3, r3, #4
 80008b0:	6413      	str	r3, [r2, #64]	; 0x40
		if(interruptEnable)
 80008b2:	78fb      	ldrb	r3, [r7, #3]
 80008b4:	2b00      	cmp	r3, #0
 80008b6:	d006      	beq.n	80008c6 <_ZN5TimerC1EP11TIM_TypeDefmb+0xba>
		{
			NVIC_EnableIRQ(TIM4_IRQn);
 80008b8:	201e      	movs	r0, #30
 80008ba:	f7ff ff41 	bl	8000740 <NVIC_EnableIRQ>
			NVIC_SetPriority(TIM4_IRQn,0);
 80008be:	2100      	movs	r1, #0
 80008c0:	201e      	movs	r0, #30
 80008c2:	f7ff ff57 	bl	8000774 <NVIC_SetPriority>
		}

	}
	if ( tmr == TIM5)
 80008c6:	68bb      	ldr	r3, [r7, #8]
 80008c8:	4a1b      	ldr	r2, [pc, #108]	; (8000938 <_ZN5TimerC1EP11TIM_TypeDefmb+0x12c>)
 80008ca:	4293      	cmp	r3, r2
 80008cc:	d10f      	bne.n	80008ee <_ZN5TimerC1EP11TIM_TypeDefmb+0xe2>
	{
		RCC->APB1ENR |= RCC_APB1ENR_TIM5EN;
 80008ce:	4b17      	ldr	r3, [pc, #92]	; (800092c <_ZN5TimerC1EP11TIM_TypeDefmb+0x120>)
 80008d0:	6c1b      	ldr	r3, [r3, #64]	; 0x40
 80008d2:	4a16      	ldr	r2, [pc, #88]	; (800092c <_ZN5TimerC1EP11TIM_TypeDefmb+0x120>)
 80008d4:	f043 0308 	orr.w	r3, r3, #8
 80008d8:	6413      	str	r3, [r2, #64]	; 0x40
		if(interruptEnable)
 80008da:	78fb      	ldrb	r3, [r7, #3]
 80008dc:	2b00      	cmp	r3, #0
 80008de:	d006      	beq.n	80008ee <_ZN5TimerC1EP11TIM_TypeDefmb+0xe2>
		{
			NVIC_EnableIRQ(TIM5_IRQn);
 80008e0:	2032      	movs	r0, #50	; 0x32
 80008e2:	f7ff ff2d 	bl	8000740 <NVIC_EnableIRQ>
			NVIC_SetPriority(TIM5_IRQn,2);
 80008e6:	2102      	movs	r1, #2
 80008e8:	2032      	movs	r0, #50	; 0x32
 80008ea:	f7ff ff43 	bl	8000774 <NVIC_SetPriority>
		}
	}
	setPeriod(us);
 80008ee:	6879      	ldr	r1, [r7, #4]
 80008f0:	68f8      	ldr	r0, [r7, #12]
 80008f2:	f000 f823 	bl	800093c <_ZN5Timer9setPeriodEm>
	if(interruptEnable)
 80008f6:	78fb      	ldrb	r3, [r7, #3]
 80008f8:	2b00      	cmp	r3, #0
 80008fa:	d003      	beq.n	8000904 <_ZN5TimerC1EP11TIM_TypeDefmb+0xf8>
		timer->DIER = TIM_DIER_UIE;
 80008fc:	68fb      	ldr	r3, [r7, #12]
 80008fe:	685b      	ldr	r3, [r3, #4]
 8000900:	2201      	movs	r2, #1
 8000902:	819a      	strh	r2, [r3, #12]
	timer->CR1 |= TIM_CR1_ARPE;
 8000904:	68fb      	ldr	r3, [r7, #12]
 8000906:	685b      	ldr	r3, [r3, #4]
 8000908:	881b      	ldrh	r3, [r3, #0]
 800090a:	b29a      	uxth	r2, r3
 800090c:	68fb      	ldr	r3, [r7, #12]
 800090e:	685b      	ldr	r3, [r3, #4]
 8000910:	f042 0280 	orr.w	r2, r2, #128	; 0x80
 8000914:	b292      	uxth	r2, r2
 8000916:	801a      	strh	r2, [r3, #0]
}
 8000918:	68fb      	ldr	r3, [r7, #12]
 800091a:	4618      	mov	r0, r3
 800091c:	3710      	adds	r7, #16
 800091e:	46bd      	mov	sp, r7
 8000920:	bd80      	pop	{r7, pc}
 8000922:	bf00      	nop
 8000924:	080016b4 	.word	0x080016b4
 8000928:	40010000 	.word	0x40010000
 800092c:	40023800 	.word	0x40023800
 8000930:	40000400 	.word	0x40000400
 8000934:	40000800 	.word	0x40000800
 8000938:	40000c00 	.word	0x40000c00

0800093c <_ZN5Timer9setPeriodEm>:

void Timer::setPeriod(uint32_t us)
{
 800093c:	b580      	push	{r7, lr}
 800093e:	b084      	sub	sp, #16
 8000940:	af00      	add	r7, sp, #0
 8000942:	6078      	str	r0, [r7, #4]
 8000944:	6039      	str	r1, [r7, #0]
	uint32_t divFactor = 2000000;
 8000946:	4b17      	ldr	r3, [pc, #92]	; (80009a4 <_ZN5Timer9setPeriodEm+0x68>)
 8000948:	60fb      	str	r3, [r7, #12]
	uint32_t reload = us - 1;
 800094a:	683b      	ldr	r3, [r7, #0]
 800094c:	3b01      	subs	r3, #1
 800094e:	60bb      	str	r3, [r7, #8]

	if ( us > 10000)
 8000950:	683b      	ldr	r3, [r7, #0]
 8000952:	f242 7210 	movw	r2, #10000	; 0x2710
 8000956:	4293      	cmp	r3, r2
 8000958:	d909      	bls.n	800096e <_ZN5Timer9setPeriodEm+0x32>
	{
		reload = us / 100 - 1;
 800095a:	683b      	ldr	r3, [r7, #0]
 800095c:	4a12      	ldr	r2, [pc, #72]	; (80009a8 <_ZN5Timer9setPeriodEm+0x6c>)
 800095e:	fba2 2303 	umull	r2, r3, r2, r3
 8000962:	095b      	lsrs	r3, r3, #5
 8000964:	3b01      	subs	r3, #1
 8000966:	60bb      	str	r3, [r7, #8]
		divFactor = 20000;
 8000968:	f644 6320 	movw	r3, #20000	; 0x4e20
 800096c:	60fb      	str	r3, [r7, #12]
	}

	if(reload < 1)
 800096e:	68bb      	ldr	r3, [r7, #8]
 8000970:	2b00      	cmp	r3, #0
 8000972:	d101      	bne.n	8000978 <_ZN5Timer9setPeriodEm+0x3c>
		reload = 1;
 8000974:	2301      	movs	r3, #1
 8000976:	60bb      	str	r3, [r7, #8]

	stop();
 8000978:	6878      	ldr	r0, [r7, #4]
 800097a:	f000 f90f 	bl	8000b9c <_ZN5Timer4stopEv>
	timer->PSC = SystemCoreClock / divFactor - 1;
 800097e:	4b0b      	ldr	r3, [pc, #44]	; (80009ac <_ZN5Timer9setPeriodEm+0x70>)
 8000980:	681a      	ldr	r2, [r3, #0]
 8000982:	68fb      	ldr	r3, [r7, #12]
 8000984:	fbb2 f3f3 	udiv	r3, r2, r3
 8000988:	b29a      	uxth	r2, r3
 800098a:	687b      	ldr	r3, [r7, #4]
 800098c:	685b      	ldr	r3, [r3, #4]
 800098e:	3a01      	subs	r2, #1
 8000990:	b292      	uxth	r2, r2
 8000992:	851a      	strh	r2, [r3, #40]	; 0x28
	timer->ARR = reload;
 8000994:	687b      	ldr	r3, [r7, #4]
 8000996:	685b      	ldr	r3, [r3, #4]
 8000998:	68ba      	ldr	r2, [r7, #8]
 800099a:	62da      	str	r2, [r3, #44]	; 0x2c

}
 800099c:	bf00      	nop
 800099e:	3710      	adds	r7, #16
 80009a0:	46bd      	mov	sp, r7
 80009a2:	bd80      	pop	{r7, pc}
 80009a4:	001e8480 	.word	0x001e8480
 80009a8:	51eb851f 	.word	0x51eb851f
 80009ac:	20000008 	.word	0x20000008

080009b0 <_ZN5Timer9enablePWMEhmt>:
void Timer::enablePWM(uint8_t ch, uint32_t freq, uint16_t range)
{
 80009b0:	b480      	push	{r7}
 80009b2:	b085      	sub	sp, #20
 80009b4:	af00      	add	r7, sp, #0
 80009b6:	60f8      	str	r0, [r7, #12]
 80009b8:	607a      	str	r2, [r7, #4]
 80009ba:	461a      	mov	r2, r3
 80009bc:	460b      	mov	r3, r1
 80009be:	72fb      	strb	r3, [r7, #11]
 80009c0:	4613      	mov	r3, r2
 80009c2:	813b      	strh	r3, [r7, #8]
	timer->CR1 |= TIM_CR1_DIR;
 80009c4:	68fb      	ldr	r3, [r7, #12]
 80009c6:	685b      	ldr	r3, [r3, #4]
 80009c8:	881b      	ldrh	r3, [r3, #0]
 80009ca:	b29a      	uxth	r2, r3
 80009cc:	68fb      	ldr	r3, [r7, #12]
 80009ce:	685b      	ldr	r3, [r3, #4]
 80009d0:	f042 0210 	orr.w	r2, r2, #16
 80009d4:	b292      	uxth	r2, r2
 80009d6:	801a      	strh	r2, [r3, #0]
	if((range+1) * freq * 2 > SystemCoreClock)
 80009d8:	893b      	ldrh	r3, [r7, #8]
 80009da:	3301      	adds	r3, #1
 80009dc:	461a      	mov	r2, r3
 80009de:	687b      	ldr	r3, [r7, #4]
 80009e0:	fb03 f302 	mul.w	r3, r3, r2
 80009e4:	005a      	lsls	r2, r3, #1
 80009e6:	4b62      	ldr	r3, [pc, #392]	; (8000b70 <_ZN5Timer9enablePWMEhmt+0x1c0>)
 80009e8:	681b      	ldr	r3, [r3, #0]
 80009ea:	429a      	cmp	r2, r3
 80009ec:	d907      	bls.n	80009fe <_ZN5Timer9enablePWMEhmt+0x4e>
	{
		freq = SystemCoreClock / ( 2 * (range+1) );
 80009ee:	4b60      	ldr	r3, [pc, #384]	; (8000b70 <_ZN5Timer9enablePWMEhmt+0x1c0>)
 80009f0:	681b      	ldr	r3, [r3, #0]
 80009f2:	893a      	ldrh	r2, [r7, #8]
 80009f4:	3201      	adds	r2, #1
 80009f6:	0052      	lsls	r2, r2, #1
 80009f8:	fbb3 f3f2 	udiv	r3, r3, r2
 80009fc:	607b      	str	r3, [r7, #4]
	}
	timer->ARR = range;
 80009fe:	68fb      	ldr	r3, [r7, #12]
 8000a00:	685b      	ldr	r3, [r3, #4]
 8000a02:	893a      	ldrh	r2, [r7, #8]
 8000a04:	62da      	str	r2, [r3, #44]	; 0x2c
	timer->PSC = SystemCoreClock / (freq*2*range) - 1;
 8000a06:	4b5a      	ldr	r3, [pc, #360]	; (8000b70 <_ZN5Timer9enablePWMEhmt+0x1c0>)
 8000a08:	681a      	ldr	r2, [r3, #0]
 8000a0a:	893b      	ldrh	r3, [r7, #8]
 8000a0c:	6879      	ldr	r1, [r7, #4]
 8000a0e:	fb01 f303 	mul.w	r3, r1, r3
 8000a12:	005b      	lsls	r3, r3, #1
 8000a14:	fbb2 f3f3 	udiv	r3, r2, r3
 8000a18:	b29a      	uxth	r2, r3
 8000a1a:	68fb      	ldr	r3, [r7, #12]
 8000a1c:	685b      	ldr	r3, [r3, #4]
 8000a1e:	3a01      	subs	r2, #1
 8000a20:	b292      	uxth	r2, r2
 8000a22:	851a      	strh	r2, [r3, #40]	; 0x28

	switch(ch)
 8000a24:	7afb      	ldrb	r3, [r7, #11]
 8000a26:	3b01      	subs	r3, #1
 8000a28:	2b03      	cmp	r3, #3
 8000a2a:	f200 809b 	bhi.w	8000b64 <_ZN5Timer9enablePWMEhmt+0x1b4>
 8000a2e:	a201      	add	r2, pc, #4	; (adr r2, 8000a34 <_ZN5Timer9enablePWMEhmt+0x84>)
 8000a30:	f852 f023 	ldr.w	pc, [r2, r3, lsl #2]
 8000a34:	08000a45 	.word	0x08000a45
 8000a38:	08000a8d 	.word	0x08000a8d
 8000a3c:	08000ad5 	.word	0x08000ad5
 8000a40:	08000b1d 	.word	0x08000b1d
	{
	case 1  :
		timer->CCMR1 &= ~TIM_CCMR1_OC1M;
 8000a44:	68fb      	ldr	r3, [r7, #12]
 8000a46:	685b      	ldr	r3, [r3, #4]
 8000a48:	8b1b      	ldrh	r3, [r3, #24]
 8000a4a:	b29a      	uxth	r2, r3
 8000a4c:	68fb      	ldr	r3, [r7, #12]
 8000a4e:	685b      	ldr	r3, [r3, #4]
 8000a50:	f022 0270 	bic.w	r2, r2, #112	; 0x70
 8000a54:	b292      	uxth	r2, r2
 8000a56:	831a      	strh	r2, [r3, #24]
		timer->CCMR1 |= TIM_CCMR1_OC1M_2 | TIM_CCMR1_OC1M_1;
 8000a58:	68fb      	ldr	r3, [r7, #12]
 8000a5a:	685b      	ldr	r3, [r3, #4]
 8000a5c:	8b1b      	ldrh	r3, [r3, #24]
 8000a5e:	b29a      	uxth	r2, r3
 8000a60:	68fb      	ldr	r3, [r7, #12]
 8000a62:	685b      	ldr	r3, [r3, #4]
 8000a64:	f042 0260 	orr.w	r2, r2, #96	; 0x60
 8000a68:	b292      	uxth	r2, r2
 8000a6a:	831a      	strh	r2, [r3, #24]
		timer->CCR1 = range>>1;
 8000a6c:	893b      	ldrh	r3, [r7, #8]
 8000a6e:	105a      	asrs	r2, r3, #1
 8000a70:	68fb      	ldr	r3, [r7, #12]
 8000a72:	685b      	ldr	r3, [r3, #4]
 8000a74:	635a      	str	r2, [r3, #52]	; 0x34
		timer->CCER |= TIM_CCER_CC1E;
 8000a76:	68fb      	ldr	r3, [r7, #12]
 8000a78:	685b      	ldr	r3, [r3, #4]
 8000a7a:	8c1b      	ldrh	r3, [r3, #32]
 8000a7c:	b29a      	uxth	r2, r3
 8000a7e:	68fb      	ldr	r3, [r7, #12]
 8000a80:	685b      	ldr	r3, [r3, #4]
 8000a82:	f042 0201 	orr.w	r2, r2, #1
 8000a86:	b292      	uxth	r2, r2
 8000a88:	841a      	strh	r2, [r3, #32]
		break;
 8000a8a:	e06b      	b.n	8000b64 <_ZN5Timer9enablePWMEhmt+0x1b4>
	case 2  :
		timer->CCMR1 &= ~TIM_CCMR1_OC2M;
 8000a8c:	68fb      	ldr	r3, [r7, #12]
 8000a8e:	685b      	ldr	r3, [r3, #4]
 8000a90:	8b1b      	ldrh	r3, [r3, #24]
 8000a92:	b29a      	uxth	r2, r3
 8000a94:	68fb      	ldr	r3, [r7, #12]
 8000a96:	685b      	ldr	r3, [r3, #4]
 8000a98:	f422 42e0 	bic.w	r2, r2, #28672	; 0x7000
 8000a9c:	b292      	uxth	r2, r2
 8000a9e:	831a      	strh	r2, [r3, #24]
		timer->CCMR1 |= TIM_CCMR1_OC2M_2 | TIM_CCMR1_OC2M_1;
 8000aa0:	68fb      	ldr	r3, [r7, #12]
 8000aa2:	685b      	ldr	r3, [r3, #4]
 8000aa4:	8b1b      	ldrh	r3, [r3, #24]
 8000aa6:	b29a      	uxth	r2, r3
 8000aa8:	68fb      	ldr	r3, [r7, #12]
 8000aaa:	685b      	ldr	r3, [r3, #4]
 8000aac:	f442 42c0 	orr.w	r2, r2, #24576	; 0x6000
 8000ab0:	b292      	uxth	r2, r2
 8000ab2:	831a      	strh	r2, [r3, #24]
		timer->CCR2 = range>>1;
 8000ab4:	893b      	ldrh	r3, [r7, #8]
 8000ab6:	105a      	asrs	r2, r3, #1
 8000ab8:	68fb      	ldr	r3, [r7, #12]
 8000aba:	685b      	ldr	r3, [r3, #4]
 8000abc:	639a      	str	r2, [r3, #56]	; 0x38
		timer->CCER |= TIM_CCER_CC2E;
 8000abe:	68fb      	ldr	r3, [r7, #12]
 8000ac0:	685b      	ldr	r3, [r3, #4]
 8000ac2:	8c1b      	ldrh	r3, [r3, #32]
 8000ac4:	b29a      	uxth	r2, r3
 8000ac6:	68fb      	ldr	r3, [r7, #12]
 8000ac8:	685b      	ldr	r3, [r3, #4]
 8000aca:	f042 0210 	orr.w	r2, r2, #16
 8000ace:	b292      	uxth	r2, r2
 8000ad0:	841a      	strh	r2, [r3, #32]
		break;
 8000ad2:	e047      	b.n	8000b64 <_ZN5Timer9enablePWMEhmt+0x1b4>
	case 3  :
		timer->CCMR2 &= ~TIM_CCMR2_OC3M;
 8000ad4:	68fb      	ldr	r3, [r7, #12]
 8000ad6:	685b      	ldr	r3, [r3, #4]
 8000ad8:	8b9b      	ldrh	r3, [r3, #28]
 8000ada:	b29a      	uxth	r2, r3
 8000adc:	68fb      	ldr	r3, [r7, #12]
 8000ade:	685b      	ldr	r3, [r3, #4]
 8000ae0:	f022 0270 	bic.w	r2, r2, #112	; 0x70
 8000ae4:	b292      	uxth	r2, r2
 8000ae6:	839a      	strh	r2, [r3, #28]
		timer->CCMR2 |= TIM_CCMR2_OC3M_2 | TIM_CCMR2_OC3M_1;
 8000ae8:	68fb      	ldr	r3, [r7, #12]
 8000aea:	685b      	ldr	r3, [r3, #4]
 8000aec:	8b9b      	ldrh	r3, [r3, #28]
 8000aee:	b29a      	uxth	r2, r3
 8000af0:	68fb      	ldr	r3, [r7, #12]
 8000af2:	685b      	ldr	r3, [r3, #4]
 8000af4:	f042 0260 	orr.w	r2, r2, #96	; 0x60
 8000af8:	b292      	uxth	r2, r2
 8000afa:	839a      	strh	r2, [r3, #28]
		timer->CCR3 = range>>1;
 8000afc:	893b      	ldrh	r3, [r7, #8]
 8000afe:	105a      	asrs	r2, r3, #1
 8000b00:	68fb      	ldr	r3, [r7, #12]
 8000b02:	685b      	ldr	r3, [r3, #4]
 8000b04:	63da      	str	r2, [r3, #60]	; 0x3c
		timer->CCER |= TIM_CCER_CC3E;
 8000b06:	68fb      	ldr	r3, [r7, #12]
 8000b08:	685b      	ldr	r3, [r3, #4]
 8000b0a:	8c1b      	ldrh	r3, [r3, #32]
 8000b0c:	b29a      	uxth	r2, r3
 8000b0e:	68fb      	ldr	r3, [r7, #12]
 8000b10:	685b      	ldr	r3, [r3, #4]
 8000b12:	f442 7280 	orr.w	r2, r2, #256	; 0x100
 8000b16:	b292      	uxth	r2, r2
 8000b18:	841a      	strh	r2, [r3, #32]
		break;
 8000b1a:	e023      	b.n	8000b64 <_ZN5Timer9enablePWMEhmt+0x1b4>
	case 4  :
		timer->CCMR2 &= ~TIM_CCMR2_OC4M;
 8000b1c:	68fb      	ldr	r3, [r7, #12]
 8000b1e:	685b      	ldr	r3, [r3, #4]
 8000b20:	8b9b      	ldrh	r3, [r3, #28]
 8000b22:	b29a      	uxth	r2, r3
 8000b24:	68fb      	ldr	r3, [r7, #12]
 8000b26:	685b      	ldr	r3, [r3, #4]
 8000b28:	f422 42e0 	bic.w	r2, r2, #28672	; 0x7000
 8000b2c:	b292      	uxth	r2, r2
 8000b2e:	839a      	strh	r2, [r3, #28]
		timer->CCMR2 |= TIM_CCMR2_OC4M_2 | TIM_CCMR2_OC4M_1;
 8000b30:	68fb      	ldr	r3, [r7, #12]
 8000b32:	685b      	ldr	r3, [r3, #4]
 8000b34:	8b9b      	ldrh	r3, [r3, #28]
 8000b36:	b29a      	uxth	r2, r3
 8000b38:	68fb      	ldr	r3, [r7, #12]
 8000b3a:	685b      	ldr	r3, [r3, #4]
 8000b3c:	f442 42c0 	orr.w	r2, r2, #24576	; 0x6000
 8000b40:	b292      	uxth	r2, r2
 8000b42:	839a      	strh	r2, [r3, #28]
		timer->CCR4 = range>>1;
 8000b44:	893b      	ldrh	r3, [r7, #8]
 8000b46:	105a      	asrs	r2, r3, #1
 8000b48:	68fb      	ldr	r3, [r7, #12]
 8000b4a:	685b      	ldr	r3, [r3, #4]
 8000b4c:	641a      	str	r2, [r3, #64]	; 0x40
		timer->CCER |= TIM_CCER_CC4E;
 8000b4e:	68fb      	ldr	r3, [r7, #12]
 8000b50:	685b      	ldr	r3, [r3, #4]
 8000b52:	8c1b      	ldrh	r3, [r3, #32]
 8000b54:	b29a      	uxth	r2, r3
 8000b56:	68fb      	ldr	r3, [r7, #12]
 8000b58:	685b      	ldr	r3, [r3, #4]
 8000b5a:	f442 5280 	orr.w	r2, r2, #4096	; 0x1000
 8000b5e:	b292      	uxth	r2, r2
 8000b60:	841a      	strh	r2, [r3, #32]
		break;
 8000b62:	bf00      	nop
	}
}
 8000b64:	bf00      	nop
 8000b66:	3714      	adds	r7, #20
 8000b68:	46bd      	mov	sp, r7
 8000b6a:	f85d 7b04 	ldr.w	r7, [sp], #4
 8000b6e:	4770      	bx	lr
 8000b70:	20000008 	.word	0x20000008

08000b74 <_ZN5Timer5startEv>:
		break;
	}
}

void Timer::start()
{
 8000b74:	b480      	push	{r7}
 8000b76:	b083      	sub	sp, #12
 8000b78:	af00      	add	r7, sp, #0
 8000b7a:	6078      	str	r0, [r7, #4]
	timer->CR1 |= TIM_CR1_CEN;
 8000b7c:	687b      	ldr	r3, [r7, #4]
 8000b7e:	685b      	ldr	r3, [r3, #4]
 8000b80:	881b      	ldrh	r3, [r3, #0]
 8000b82:	b29a      	uxth	r2, r3
 8000b84:	687b      	ldr	r3, [r7, #4]
 8000b86:	685b      	ldr	r3, [r3, #4]
 8000b88:	f042 0201 	orr.w	r2, r2, #1
 8000b8c:	b292      	uxth	r2, r2
 8000b8e:	801a      	strh	r2, [r3, #0]
}
 8000b90:	bf00      	nop
 8000b92:	370c      	adds	r7, #12
 8000b94:	46bd      	mov	sp, r7
 8000b96:	f85d 7b04 	ldr.w	r7, [sp], #4
 8000b9a:	4770      	bx	lr

08000b9c <_ZN5Timer4stopEv>:

void Timer::stop()
{
 8000b9c:	b480      	push	{r7}
 8000b9e:	b083      	sub	sp, #12
 8000ba0:	af00      	add	r7, sp, #0
 8000ba2:	6078      	str	r0, [r7, #4]
	timer->CR1 &= ~TIM_CR1_CEN;
 8000ba4:	687b      	ldr	r3, [r7, #4]
 8000ba6:	685b      	ldr	r3, [r3, #4]
 8000ba8:	881b      	ldrh	r3, [r3, #0]
 8000baa:	b29a      	uxth	r2, r3
 8000bac:	687b      	ldr	r3, [r7, #4]
 8000bae:	685b      	ldr	r3, [r3, #4]
 8000bb0:	f022 0201 	bic.w	r2, r2, #1
 8000bb4:	b292      	uxth	r2, r2
 8000bb6:	801a      	strh	r2, [r3, #0]
}
 8000bb8:	bf00      	nop
 8000bba:	370c      	adds	r7, #12
 8000bbc:	46bd      	mov	sp, r7
 8000bbe:	f85d 7b04 	ldr.w	r7, [sp], #4
 8000bc2:	4770      	bx	lr

08000bc4 <_ZN14hardwareConfigC1Ev>:
 *      Author: 201723940
 */

#include "hardwareConfig.h"

hardwareConfig::hardwareConfig() {
 8000bc4:	b480      	push	{r7}
 8000bc6:	b083      	sub	sp, #12
 8000bc8:	af00      	add	r7, sp, #0
 8000bca:	6078      	str	r0, [r7, #4]
 8000bcc:	4a04      	ldr	r2, [pc, #16]	; (8000be0 <_ZN14hardwareConfigC1Ev+0x1c>)
 8000bce:	687b      	ldr	r3, [r7, #4]
 8000bd0:	601a      	str	r2, [r3, #0]

}
 8000bd2:	687b      	ldr	r3, [r7, #4]
 8000bd4:	4618      	mov	r0, r3
 8000bd6:	370c      	adds	r7, #12
 8000bd8:	46bd      	mov	sp, r7
 8000bda:	f85d 7b04 	ldr.w	r7, [sp], #4
 8000bde:	4770      	bx	lr
 8000be0:	08001694 	.word	0x08001694

08000be4 <_ZN14hardwareConfigD1Ev>:

hardwareConfig::~hardwareConfig() {
 8000be4:	b480      	push	{r7}
 8000be6:	b083      	sub	sp, #12
 8000be8:	af00      	add	r7, sp, #0
 8000bea:	6078      	str	r0, [r7, #4]
 8000bec:	4a04      	ldr	r2, [pc, #16]	; (8000c00 <_ZN14hardwareConfigD1Ev+0x1c>)
 8000bee:	687b      	ldr	r3, [r7, #4]
 8000bf0:	601a      	str	r2, [r3, #0]

}
 8000bf2:	687b      	ldr	r3, [r7, #4]
 8000bf4:	4618      	mov	r0, r3
 8000bf6:	370c      	adds	r7, #12
 8000bf8:	46bd      	mov	sp, r7
 8000bfa:	f85d 7b04 	ldr.w	r7, [sp], #4
 8000bfe:	4770      	bx	lr
 8000c00:	08001694 	.word	0x08001694

08000c04 <_ZN14hardwareConfigD0Ev>:
hardwareConfig::~hardwareConfig() {
 8000c04:	b580      	push	{r7, lr}
 8000c06:	b082      	sub	sp, #8
 8000c08:	af00      	add	r7, sp, #0
 8000c0a:	6078      	str	r0, [r7, #4]
}
 8000c0c:	6878      	ldr	r0, [r7, #4]
 8000c0e:	f7ff ffe9 	bl	8000be4 <_ZN14hardwareConfigD1Ev>
 8000c12:	2104      	movs	r1, #4
 8000c14:	6878      	ldr	r0, [r7, #4]
 8000c16:	f000 fb40 	bl	800129a <_ZdlPvj>
 8000c1a:	687b      	ldr	r3, [r7, #4]
 8000c1c:	4618      	mov	r0, r3
 8000c1e:	3708      	adds	r7, #8
 8000c20:	46bd      	mov	sp, r7
 8000c22:	bd80      	pop	{r7, pc}

08000c24 <_ZN14hardwareConfig14SysClockConfigEv>:
// gère l'initialisation de base pour assurer le fonctionnement de base du nucle
//****dois être la première chose appeler dans le main.
void hardwareConfig::SysClockConfig(void)
{
 8000c24:	b480      	push	{r7}
 8000c26:	b083      	sub	sp, #12
 8000c28:	af00      	add	r7, sp, #0
 8000c2a:	6078      	str	r0, [r7, #4]
	// active le hse
	RCC->CR = RCC_CR_HSEON;
 8000c2c:	4b30      	ldr	r3, [pc, #192]	; (8000cf0 <_ZN14hardwareConfig14SysClockConfigEv+0xcc>)
 8000c2e:	f44f 3280 	mov.w	r2, #65536	; 0x10000
 8000c32:	601a      	str	r2, [r3, #0]
	//attendre que le cristal soit activer
	while(!(RCC->CR & RCC_CR_HSERDY));
 8000c34:	4b2e      	ldr	r3, [pc, #184]	; (8000cf0 <_ZN14hardwareConfig14SysClockConfigEv+0xcc>)
 8000c36:	681b      	ldr	r3, [r3, #0]
 8000c38:	f403 3300 	and.w	r3, r3, #131072	; 0x20000
 8000c3c:	2b00      	cmp	r3, #0
 8000c3e:	bf0c      	ite	eq
 8000c40:	2301      	moveq	r3, #1
 8000c42:	2300      	movne	r3, #0
 8000c44:	b2db      	uxtb	r3, r3
 8000c46:	2b00      	cmp	r3, #0
 8000c48:	d000      	beq.n	8000c4c <_ZN14hardwareConfig14SysClockConfigEv+0x28>
 8000c4a:	e7f3      	b.n	8000c34 <_ZN14hardwareConfig14SysClockConfigEv+0x10>

	//set le power enable et le regulateur de tension
	RCC->APB1ENR |= RCC_APB1ENR_PWREN;
 8000c4c:	4b28      	ldr	r3, [pc, #160]	; (8000cf0 <_ZN14hardwareConfig14SysClockConfigEv+0xcc>)
 8000c4e:	6c1b      	ldr	r3, [r3, #64]	; 0x40
 8000c50:	4a27      	ldr	r2, [pc, #156]	; (8000cf0 <_ZN14hardwareConfig14SysClockConfigEv+0xcc>)
 8000c52:	f043 5380 	orr.w	r3, r3, #268435456	; 0x10000000
 8000c56:	6413      	str	r3, [r2, #64]	; 0x40
	PWR->CR |= PWR_CR_VOS; // corresponds à la valeure reset "11"
 8000c58:	4b26      	ldr	r3, [pc, #152]	; (8000cf4 <_ZN14hardwareConfig14SysClockConfigEv+0xd0>)
 8000c5a:	681b      	ldr	r3, [r3, #0]
 8000c5c:	4a25      	ldr	r2, [pc, #148]	; (8000cf4 <_ZN14hardwareConfig14SysClockConfigEv+0xd0>)
 8000c5e:	f443 4340 	orr.w	r3, r3, #49152	; 0xc000
 8000c62:	6013      	str	r3, [r2, #0]

	// configuration du flash
	FLASH->ACR |= FLASH_ACR_ICEN | FLASH_ACR_DCEN | FLASH_ACR_PRFTEN |FLASH_ACR_LATENCY_5WS;
 8000c64:	4b24      	ldr	r3, [pc, #144]	; (8000cf8 <_ZN14hardwareConfig14SysClockConfigEv+0xd4>)
 8000c66:	681b      	ldr	r3, [r3, #0]
 8000c68:	4a23      	ldr	r2, [pc, #140]	; (8000cf8 <_ZN14hardwareConfig14SysClockConfigEv+0xd4>)
 8000c6a:	f443 63e0 	orr.w	r3, r3, #1792	; 0x700
 8000c6e:	f043 0305 	orr.w	r3, r3, #5
 8000c72:	6013      	str	r3, [r2, #0]

	// configuration des prescalers
	//AHB PR
	RCC->CFGR|= RCC_CFGR_HPRE_DIV1;
 8000c74:	4b1e      	ldr	r3, [pc, #120]	; (8000cf0 <_ZN14hardwareConfig14SysClockConfigEv+0xcc>)
 8000c76:	4a1e      	ldr	r2, [pc, #120]	; (8000cf0 <_ZN14hardwareConfig14SysClockConfigEv+0xcc>)
 8000c78:	689b      	ldr	r3, [r3, #8]
 8000c7a:	6093      	str	r3, [r2, #8]

	//APB1
	RCC->CFGR |= RCC_CFGR_PPRE1_DIV4; //division par 4
 8000c7c:	4b1c      	ldr	r3, [pc, #112]	; (8000cf0 <_ZN14hardwareConfig14SysClockConfigEv+0xcc>)
 8000c7e:	689b      	ldr	r3, [r3, #8]
 8000c80:	4a1b      	ldr	r2, [pc, #108]	; (8000cf0 <_ZN14hardwareConfig14SysClockConfigEv+0xcc>)
 8000c82:	f443 53a0 	orr.w	r3, r3, #5120	; 0x1400
 8000c86:	6093      	str	r3, [r2, #8]

	//APB1
	RCC->CFGR |= RCC_CFGR_PPRE2_DIV2; //division par 4
 8000c88:	4b19      	ldr	r3, [pc, #100]	; (8000cf0 <_ZN14hardwareConfig14SysClockConfigEv+0xcc>)
 8000c8a:	689b      	ldr	r3, [r3, #8]
 8000c8c:	4a18      	ldr	r2, [pc, #96]	; (8000cf0 <_ZN14hardwareConfig14SysClockConfigEv+0xcc>)
 8000c8e:	f443 4300 	orr.w	r3, r3, #32768	; 0x8000
 8000c92:	6093      	str	r3, [r2, #8]

	//configuration du pll
	RCC->PLLCFGR =(PLL_M << 0) |(PLL_N << 6) | (PLL_P << 16) | (RCC_PLLCFGR_PLLSRC_HSE);
 8000c94:	4b16      	ldr	r3, [pc, #88]	; (8000cf0 <_ZN14hardwareConfig14SysClockConfigEv+0xcc>)
 8000c96:	4a19      	ldr	r2, [pc, #100]	; (8000cfc <_ZN14hardwareConfig14SysClockConfigEv+0xd8>)
 8000c98:	605a      	str	r2, [r3, #4]

	// activerle pll et attendre qu'il soit pret
	RCC->CR |= RCC_CR_PLLON;
 8000c9a:	4b15      	ldr	r3, [pc, #84]	; (8000cf0 <_ZN14hardwareConfig14SysClockConfigEv+0xcc>)
 8000c9c:	681b      	ldr	r3, [r3, #0]
 8000c9e:	4a14      	ldr	r2, [pc, #80]	; (8000cf0 <_ZN14hardwareConfig14SysClockConfigEv+0xcc>)
 8000ca0:	f043 7380 	orr.w	r3, r3, #16777216	; 0x1000000
 8000ca4:	6013      	str	r3, [r2, #0]
	while(!(RCC->CR & RCC_CR_PLLRDY));
 8000ca6:	4b12      	ldr	r3, [pc, #72]	; (8000cf0 <_ZN14hardwareConfig14SysClockConfigEv+0xcc>)
 8000ca8:	681b      	ldr	r3, [r3, #0]
 8000caa:	f003 7300 	and.w	r3, r3, #33554432	; 0x2000000
 8000cae:	2b00      	cmp	r3, #0
 8000cb0:	bf0c      	ite	eq
 8000cb2:	2301      	moveq	r3, #1
 8000cb4:	2300      	movne	r3, #0
 8000cb6:	b2db      	uxtb	r3, r3
 8000cb8:	2b00      	cmp	r3, #0
 8000cba:	d000      	beq.n	8000cbe <_ZN14hardwareConfig14SysClockConfigEv+0x9a>
 8000cbc:	e7f3      	b.n	8000ca6 <_ZN14hardwareConfig14SysClockConfigEv+0x82>

	//Sélectionner la source de la clock (pll dans ce cas ci)
	RCC-> CFGR |= RCC_CFGR_SW_PLL;
 8000cbe:	4b0c      	ldr	r3, [pc, #48]	; (8000cf0 <_ZN14hardwareConfig14SysClockConfigEv+0xcc>)
 8000cc0:	689b      	ldr	r3, [r3, #8]
 8000cc2:	4a0b      	ldr	r2, [pc, #44]	; (8000cf0 <_ZN14hardwareConfig14SysClockConfigEv+0xcc>)
 8000cc4:	f043 0302 	orr.w	r3, r3, #2
 8000cc8:	6093      	str	r3, [r2, #8]
	while((RCC->CFGR & RCC_CFGR_SWS) != RCC_CFGR_SWS_PLL);
 8000cca:	4b09      	ldr	r3, [pc, #36]	; (8000cf0 <_ZN14hardwareConfig14SysClockConfigEv+0xcc>)
 8000ccc:	689b      	ldr	r3, [r3, #8]
 8000cce:	f003 030c 	and.w	r3, r3, #12
 8000cd2:	2b08      	cmp	r3, #8
 8000cd4:	bf14      	ite	ne
 8000cd6:	2301      	movne	r3, #1
 8000cd8:	2300      	moveq	r3, #0
 8000cda:	b2db      	uxtb	r3, r3
 8000cdc:	2b00      	cmp	r3, #0
 8000cde:	d000      	beq.n	8000ce2 <_ZN14hardwareConfig14SysClockConfigEv+0xbe>
 8000ce0:	e7f3      	b.n	8000cca <_ZN14hardwareConfig14SysClockConfigEv+0xa6>
}
 8000ce2:	bf00      	nop
 8000ce4:	370c      	adds	r7, #12
 8000ce6:	46bd      	mov	sp, r7
 8000ce8:	f85d 7b04 	ldr.w	r7, [sp], #4
 8000cec:	4770      	bx	lr
 8000cee:	bf00      	nop
 8000cf0:	40023800 	.word	0x40023800
 8000cf4:	40007000 	.word	0x40007000
 8000cf8:	40023c00 	.word	0x40023c00
 8000cfc:	00402d04 	.word	0x00402d04

08000d00 <_ZN14hardwareConfig11GPIO_ConfigEP12GPIO_TypeDefh10_IO_MODES_h>:

//Permet de configurer facilement les modes de chaques io
void hardwareConfig::GPIO_Config(GPIO_TypeDef* gpio, uint8_t pin, _IO_MODES_t mode,
		uint8_t alterFunction)
{
 8000d00:	b480      	push	{r7}
 8000d02:	b085      	sub	sp, #20
 8000d04:	af00      	add	r7, sp, #0
 8000d06:	60f8      	str	r0, [r7, #12]
 8000d08:	60b9      	str	r1, [r7, #8]
 8000d0a:	4611      	mov	r1, r2
 8000d0c:	461a      	mov	r2, r3
 8000d0e:	460b      	mov	r3, r1
 8000d10:	71fb      	strb	r3, [r7, #7]
 8000d12:	4613      	mov	r3, r2
 8000d14:	71bb      	strb	r3, [r7, #6]
	if (gpio == GPIOA)
 8000d16:	68bb      	ldr	r3, [r7, #8]
 8000d18:	4a23      	ldr	r2, [pc, #140]	; (8000da8 <_ZN14hardwareConfig11GPIO_ConfigEP12GPIO_TypeDefh10_IO_MODES_h+0xa8>)
 8000d1a:	4293      	cmp	r3, r2
 8000d1c:	d105      	bne.n	8000d2a <_ZN14hardwareConfig11GPIO_ConfigEP12GPIO_TypeDefh10_IO_MODES_h+0x2a>
		RCC->AHB1ENR |= (RCC_AHB1ENR_GPIOAEN);
 8000d1e:	4b23      	ldr	r3, [pc, #140]	; (8000dac <_ZN14hardwareConfig11GPIO_ConfigEP12GPIO_TypeDefh10_IO_MODES_h+0xac>)
 8000d20:	6b1b      	ldr	r3, [r3, #48]	; 0x30
 8000d22:	4a22      	ldr	r2, [pc, #136]	; (8000dac <_ZN14hardwareConfig11GPIO_ConfigEP12GPIO_TypeDefh10_IO_MODES_h+0xac>)
 8000d24:	f043 0301 	orr.w	r3, r3, #1
 8000d28:	6313      	str	r3, [r2, #48]	; 0x30
	if (gpio == GPIOB)
 8000d2a:	68bb      	ldr	r3, [r7, #8]
 8000d2c:	4a20      	ldr	r2, [pc, #128]	; (8000db0 <_ZN14hardwareConfig11GPIO_ConfigEP12GPIO_TypeDefh10_IO_MODES_h+0xb0>)
 8000d2e:	4293      	cmp	r3, r2
 8000d30:	d105      	bne.n	8000d3e <_ZN14hardwareConfig11GPIO_ConfigEP12GPIO_TypeDefh10_IO_MODES_h+0x3e>
		RCC->AHB1ENR |= (RCC_AHB1ENR_GPIOBEN);
 8000d32:	4b1e      	ldr	r3, [pc, #120]	; (8000dac <_ZN14hardwareConfig11GPIO_ConfigEP12GPIO_TypeDefh10_IO_MODES_h+0xac>)
 8000d34:	6b1b      	ldr	r3, [r3, #48]	; 0x30
 8000d36:	4a1d      	ldr	r2, [pc, #116]	; (8000dac <_ZN14hardwareConfig11GPIO_ConfigEP12GPIO_TypeDefh10_IO_MODES_h+0xac>)
 8000d38:	f043 0302 	orr.w	r3, r3, #2
 8000d3c:	6313      	str	r3, [r2, #48]	; 0x30
	if (gpio == GPIOC)
 8000d3e:	68bb      	ldr	r3, [r7, #8]
 8000d40:	4a1c      	ldr	r2, [pc, #112]	; (8000db4 <_ZN14hardwareConfig11GPIO_ConfigEP12GPIO_TypeDefh10_IO_MODES_h+0xb4>)
 8000d42:	4293      	cmp	r3, r2
 8000d44:	d105      	bne.n	8000d52 <_ZN14hardwareConfig11GPIO_ConfigEP12GPIO_TypeDefh10_IO_MODES_h+0x52>
		RCC->AHB1ENR |= (RCC_AHB1ENR_GPIOCEN);
 8000d46:	4b19      	ldr	r3, [pc, #100]	; (8000dac <_ZN14hardwareConfig11GPIO_ConfigEP12GPIO_TypeDefh10_IO_MODES_h+0xac>)
 8000d48:	6b1b      	ldr	r3, [r3, #48]	; 0x30
 8000d4a:	4a18      	ldr	r2, [pc, #96]	; (8000dac <_ZN14hardwareConfig11GPIO_ConfigEP12GPIO_TypeDefh10_IO_MODES_h+0xac>)
 8000d4c:	f043 0304 	orr.w	r3, r3, #4
 8000d50:	6313      	str	r3, [r2, #48]	; 0x30

	if (pin < 16)
 8000d52:	79fb      	ldrb	r3, [r7, #7]
 8000d54:	2b0f      	cmp	r3, #15
 8000d56:	d809      	bhi.n	8000d6c <_ZN14hardwareConfig11GPIO_ConfigEP12GPIO_TypeDefh10_IO_MODES_h+0x6c>
		gpio->MODER |= mode << (2 * pin);
 8000d58:	68bb      	ldr	r3, [r7, #8]
 8000d5a:	681b      	ldr	r3, [r3, #0]
 8000d5c:	79b9      	ldrb	r1, [r7, #6]
 8000d5e:	79fa      	ldrb	r2, [r7, #7]
 8000d60:	0052      	lsls	r2, r2, #1
 8000d62:	fa01 f202 	lsl.w	r2, r1, r2
 8000d66:	431a      	orrs	r2, r3
 8000d68:	68bb      	ldr	r3, [r7, #8]
 8000d6a:	601a      	str	r2, [r3, #0]
	//
	if (mode == ALTERNATE) {
 8000d6c:	79bb      	ldrb	r3, [r7, #6]
 8000d6e:	2b02      	cmp	r3, #2
 8000d70:	d114      	bne.n	8000d9c <_ZN14hardwareConfig11GPIO_ConfigEP12GPIO_TypeDefh10_IO_MODES_h+0x9c>
		if (pin < 8)
 8000d72:	79fb      	ldrb	r3, [r7, #7]
 8000d74:	2b07      	cmp	r3, #7
 8000d76:	d808      	bhi.n	8000d8a <_ZN14hardwareConfig11GPIO_ConfigEP12GPIO_TypeDefh10_IO_MODES_h+0x8a>
			gpio->AFR[0] = (alterFunction << (4 * pin));
 8000d78:	7e3a      	ldrb	r2, [r7, #24]
 8000d7a:	79fb      	ldrb	r3, [r7, #7]
 8000d7c:	009b      	lsls	r3, r3, #2
 8000d7e:	fa02 f303 	lsl.w	r3, r2, r3
 8000d82:	461a      	mov	r2, r3
 8000d84:	68bb      	ldr	r3, [r7, #8]
 8000d86:	621a      	str	r2, [r3, #32]
		else
			gpio->AFR[1] = (alterFunction << (4 * (pin - 8)));
	}

}
 8000d88:	e008      	b.n	8000d9c <_ZN14hardwareConfig11GPIO_ConfigEP12GPIO_TypeDefh10_IO_MODES_h+0x9c>
			gpio->AFR[1] = (alterFunction << (4 * (pin - 8)));
 8000d8a:	7e3a      	ldrb	r2, [r7, #24]
 8000d8c:	79fb      	ldrb	r3, [r7, #7]
 8000d8e:	3b08      	subs	r3, #8
 8000d90:	009b      	lsls	r3, r3, #2
 8000d92:	fa02 f303 	lsl.w	r3, r2, r3
 8000d96:	461a      	mov	r2, r3
 8000d98:	68bb      	ldr	r3, [r7, #8]
 8000d9a:	625a      	str	r2, [r3, #36]	; 0x24
}
 8000d9c:	bf00      	nop
 8000d9e:	3714      	adds	r7, #20
 8000da0:	46bd      	mov	sp, r7
 8000da2:	f85d 7b04 	ldr.w	r7, [sp], #4
 8000da6:	4770      	bx	lr
 8000da8:	40020000 	.word	0x40020000
 8000dac:	40023800 	.word	0x40023800
 8000db0:	40020400 	.word	0x40020400
 8000db4:	40020800 	.word	0x40020800

08000db8 <main>:
uint8_t rxData=0;
uint16_t rxCnt=0;
uint8_t rxCmd=0;
const uint16_t PAYLOAD_SIZE[2]={3,10};
uint16_t rxPayload[15];
int main(void) {
 8000db8:	b590      	push	{r4, r7, lr}
 8000dba:	b083      	sub	sp, #12
 8000dbc:	af02      	add	r7, sp, #8

	stm32F446 = new hardwareConfig();
 8000dbe:	2004      	movs	r0, #4
 8000dc0:	f000 fa6d 	bl	800129e <_Znwj>
 8000dc4:	4603      	mov	r3, r0
 8000dc6:	461c      	mov	r4, r3
 8000dc8:	4620      	mov	r0, r4
 8000dca:	f7ff fefb 	bl	8000bc4 <_ZN14hardwareConfigC1Ev>
 8000dce:	4b54      	ldr	r3, [pc, #336]	; (8000f20 <main+0x168>)
 8000dd0:	601c      	str	r4, [r3, #0]

	stm32F446->SysClockConfig();
 8000dd2:	4b53      	ldr	r3, [pc, #332]	; (8000f20 <main+0x168>)
 8000dd4:	681b      	ldr	r3, [r3, #0]
 8000dd6:	4618      	mov	r0, r3
 8000dd8:	f7ff ff24 	bl	8000c24 <_ZN14hardwareConfig14SysClockConfigEv>

	stm32F446->GPIO_Config(GPIOA, 5, OUTPUT,2);
 8000ddc:	4b50      	ldr	r3, [pc, #320]	; (8000f20 <main+0x168>)
 8000dde:	6818      	ldr	r0, [r3, #0]
 8000de0:	2302      	movs	r3, #2
 8000de2:	9300      	str	r3, [sp, #0]
 8000de4:	2301      	movs	r3, #1
 8000de6:	2205      	movs	r2, #5
 8000de8:	494e      	ldr	r1, [pc, #312]	; (8000f24 <main+0x16c>)
 8000dea:	f7ff ff89 	bl	8000d00 <_ZN14hardwareConfig11GPIO_ConfigEP12GPIO_TypeDefh10_IO_MODES_h>

	testUsart = STM32F446Usart3::getInstance();
 8000dee:	f7ff fb1d 	bl	800042c <_ZN15STM32F446Usart311getInstanceEv>
 8000df2:	4602      	mov	r2, r0
 8000df4:	4b4c      	ldr	r3, [pc, #304]	; (8000f28 <main+0x170>)
 8000df6:	601a      	str	r2, [r3, #0]
	testUsart->setBaudRate(9600);
 8000df8:	4b4b      	ldr	r3, [pc, #300]	; (8000f28 <main+0x170>)
 8000dfa:	681b      	ldr	r3, [r3, #0]
 8000dfc:	f44f 5116 	mov.w	r1, #9600	; 0x2580
 8000e00:	4618      	mov	r0, r3
 8000e02:	f7ff fb91 	bl	8000528 <_ZN15STM32F446Usart311setBaudRateEm>
	timerTest = new Timer(TIM5,10000,true);
 8000e06:	2008      	movs	r0, #8
 8000e08:	f000 fa49 	bl	800129e <_Znwj>
 8000e0c:	4603      	mov	r3, r0
 8000e0e:	461c      	mov	r4, r3
 8000e10:	2301      	movs	r3, #1
 8000e12:	f242 7210 	movw	r2, #10000	; 0x2710
 8000e16:	4945      	ldr	r1, [pc, #276]	; (8000f2c <main+0x174>)
 8000e18:	4620      	mov	r0, r4
 8000e1a:	f7ff fcf7 	bl	800080c <_ZN5TimerC1EP11TIM_TypeDefmb>
 8000e1e:	4b44      	ldr	r3, [pc, #272]	; (8000f30 <main+0x178>)
 8000e20:	601c      	str	r4, [r3, #0]
	timerTest->enablePWM(2,100);
 8000e22:	4b43      	ldr	r3, [pc, #268]	; (8000f30 <main+0x178>)
 8000e24:	6818      	ldr	r0, [r3, #0]
 8000e26:	23ff      	movs	r3, #255	; 0xff
 8000e28:	2264      	movs	r2, #100	; 0x64
 8000e2a:	2102      	movs	r1, #2
 8000e2c:	f7ff fdc0 	bl	80009b0 <_ZN5Timer9enablePWMEhmt>

	timerTest->start();
 8000e30:	4b3f      	ldr	r3, [pc, #252]	; (8000f30 <main+0x178>)
 8000e32:	681b      	ldr	r3, [r3, #0]
 8000e34:	4618      	mov	r0, r3
 8000e36:	f7ff fe9d 	bl	8000b74 <_ZN5Timer5startEv>


	while(1)
	{

		while(testUsart->dataAvailable())
 8000e3a:	4b3b      	ldr	r3, [pc, #236]	; (8000f28 <main+0x170>)
 8000e3c:	681b      	ldr	r3, [r3, #0]
 8000e3e:	4618      	mov	r0, r3
 8000e40:	f7ff fb61 	bl	8000506 <_ZNK15STM32F446Usart313dataAvailableEv>
 8000e44:	4603      	mov	r3, r0
 8000e46:	2b00      	cmp	r3, #0
 8000e48:	d05b      	beq.n	8000f02 <main+0x14a>
		{
			rxData= testUsart->read();
 8000e4a:	4b37      	ldr	r3, [pc, #220]	; (8000f28 <main+0x170>)
 8000e4c:	681b      	ldr	r3, [r3, #0]
 8000e4e:	4618      	mov	r0, r3
 8000e50:	f7ff fb40 	bl	80004d4 <_ZN15STM32F446Usart34readEv>
 8000e54:	4603      	mov	r3, r0
 8000e56:	461a      	mov	r2, r3
 8000e58:	4b36      	ldr	r3, [pc, #216]	; (8000f34 <main+0x17c>)
 8000e5a:	701a      	strb	r2, [r3, #0]
			switch (commState) {
 8000e5c:	4b36      	ldr	r3, [pc, #216]	; (8000f38 <main+0x180>)
 8000e5e:	781b      	ldrb	r3, [r3, #0]
 8000e60:	2b03      	cmp	r3, #3
 8000e62:	d8ea      	bhi.n	8000e3a <main+0x82>
 8000e64:	a201      	add	r2, pc, #4	; (adr r2, 8000e6c <main+0xb4>)
 8000e66:	f852 f023 	ldr.w	pc, [r2, r3, lsl #2]
 8000e6a:	bf00      	nop
 8000e6c:	08000e7d 	.word	0x08000e7d
 8000e70:	08000e8d 	.word	0x08000e8d
 8000e74:	08000eb5 	.word	0x08000eb5
 8000e78:	08000edf 	.word	0x08000edf
			case WAIT:
				if(rxData=='<')
 8000e7c:	4b2d      	ldr	r3, [pc, #180]	; (8000f34 <main+0x17c>)
 8000e7e:	781b      	ldrb	r3, [r3, #0]
 8000e80:	2b3c      	cmp	r3, #60	; 0x3c
 8000e82:	d13a      	bne.n	8000efa <main+0x142>
					commState=RXCMD;
 8000e84:	4b2c      	ldr	r3, [pc, #176]	; (8000f38 <main+0x180>)
 8000e86:	2201      	movs	r2, #1
 8000e88:	701a      	strb	r2, [r3, #0]
				break;
 8000e8a:	e036      	b.n	8000efa <main+0x142>
			case RXCMD:
				commState=RXPAYLOAD;
 8000e8c:	4b2a      	ldr	r3, [pc, #168]	; (8000f38 <main+0x180>)
 8000e8e:	2202      	movs	r2, #2
 8000e90:	701a      	strb	r2, [r3, #0]
				rxCnt=0;
 8000e92:	4b2a      	ldr	r3, [pc, #168]	; (8000f3c <main+0x184>)
 8000e94:	2200      	movs	r2, #0
 8000e96:	801a      	strh	r2, [r3, #0]
				//rxCmd=rxData;//commande à executer
				rxPayload[rxCnt++]=rxData;
 8000e98:	4b26      	ldr	r3, [pc, #152]	; (8000f34 <main+0x17c>)
 8000e9a:	7819      	ldrb	r1, [r3, #0]
 8000e9c:	4b27      	ldr	r3, [pc, #156]	; (8000f3c <main+0x184>)
 8000e9e:	881b      	ldrh	r3, [r3, #0]
 8000ea0:	1c5a      	adds	r2, r3, #1
 8000ea2:	b290      	uxth	r0, r2
 8000ea4:	4a25      	ldr	r2, [pc, #148]	; (8000f3c <main+0x184>)
 8000ea6:	8010      	strh	r0, [r2, #0]
 8000ea8:	461a      	mov	r2, r3
 8000eaa:	b289      	uxth	r1, r1
 8000eac:	4b24      	ldr	r3, [pc, #144]	; (8000f40 <main+0x188>)
 8000eae:	f823 1012 	strh.w	r1, [r3, r2, lsl #1]
				break;
 8000eb2:	e025      	b.n	8000f00 <main+0x148>
			case RXPAYLOAD:
				rxPayload[rxCnt++]=rxData;
 8000eb4:	4b1f      	ldr	r3, [pc, #124]	; (8000f34 <main+0x17c>)
 8000eb6:	7819      	ldrb	r1, [r3, #0]
 8000eb8:	4b20      	ldr	r3, [pc, #128]	; (8000f3c <main+0x184>)
 8000eba:	881b      	ldrh	r3, [r3, #0]
 8000ebc:	1c5a      	adds	r2, r3, #1
 8000ebe:	b290      	uxth	r0, r2
 8000ec0:	4a1e      	ldr	r2, [pc, #120]	; (8000f3c <main+0x184>)
 8000ec2:	8010      	strh	r0, [r2, #0]
 8000ec4:	461a      	mov	r2, r3
 8000ec6:	b289      	uxth	r1, r1
 8000ec8:	4b1d      	ldr	r3, [pc, #116]	; (8000f40 <main+0x188>)
 8000eca:	f823 1012 	strh.w	r1, [r3, r2, lsl #1]
				if(rxCnt>2)
 8000ece:	4b1b      	ldr	r3, [pc, #108]	; (8000f3c <main+0x184>)
 8000ed0:	881b      	ldrh	r3, [r3, #0]
 8000ed2:	2b02      	cmp	r3, #2
 8000ed4:	d913      	bls.n	8000efe <main+0x146>
					commState =VALIDATE;
 8000ed6:	4b18      	ldr	r3, [pc, #96]	; (8000f38 <main+0x180>)
 8000ed8:	2203      	movs	r2, #3
 8000eda:	701a      	strb	r2, [r3, #0]
				break;
 8000edc:	e00f      	b.n	8000efe <main+0x146>
			case VALIDATE:
				if(rxData=='>')
 8000ede:	4b15      	ldr	r3, [pc, #84]	; (8000f34 <main+0x17c>)
 8000ee0:	781b      	ldrb	r3, [r3, #0]
 8000ee2:	2b3e      	cmp	r3, #62	; 0x3e
 8000ee4:	d105      	bne.n	8000ef2 <main+0x13a>
				{
					GPIOA -> ODR ^= 1<<5;
 8000ee6:	4b0f      	ldr	r3, [pc, #60]	; (8000f24 <main+0x16c>)
 8000ee8:	695b      	ldr	r3, [r3, #20]
 8000eea:	4a0e      	ldr	r2, [pc, #56]	; (8000f24 <main+0x16c>)
 8000eec:	f083 0320 	eor.w	r3, r3, #32
 8000ef0:	6153      	str	r3, [r2, #20]


				}
				commState =WAIT;
 8000ef2:	4b11      	ldr	r3, [pc, #68]	; (8000f38 <main+0x180>)
 8000ef4:	2200      	movs	r2, #0
 8000ef6:	701a      	strb	r2, [r3, #0]
				break;
 8000ef8:	e002      	b.n	8000f00 <main+0x148>
				break;
 8000efa:	bf00      	nop
 8000efc:	e79d      	b.n	8000e3a <main+0x82>
				break;
 8000efe:	bf00      	nop
		while(testUsart->dataAvailable())
 8000f00:	e79b      	b.n	8000e3a <main+0x82>
			}
		}
		if (serialPcPauseCompleted)
 8000f02:	4b10      	ldr	r3, [pc, #64]	; (8000f44 <main+0x18c>)
 8000f04:	781b      	ldrb	r3, [r3, #0]
 8000f06:	b2db      	uxtb	r3, r3
 8000f08:	2b00      	cmp	r3, #0
 8000f0a:	d096      	beq.n	8000e3a <main+0x82>
		{

			testUsart->write(tab);
 8000f0c:	4b06      	ldr	r3, [pc, #24]	; (8000f28 <main+0x170>)
 8000f0e:	681b      	ldr	r3, [r3, #0]
 8000f10:	490d      	ldr	r1, [pc, #52]	; (8000f48 <main+0x190>)
 8000f12:	4618      	mov	r0, r3
 8000f14:	f7ff fac8 	bl	80004a8 <_ZN15STM32F446Usart35writeEPc>

			serialPcPauseCompleted = false;
 8000f18:	4b0a      	ldr	r3, [pc, #40]	; (8000f44 <main+0x18c>)
 8000f1a:	2200      	movs	r2, #0
 8000f1c:	701a      	strb	r2, [r3, #0]
	while(1)
 8000f1e:	e78c      	b.n	8000e3a <main+0x82>
 8000f20:	200000a4 	.word	0x200000a4
 8000f24:	40020000 	.word	0x40020000
 8000f28:	200000ac 	.word	0x200000ac
 8000f2c:	40000c00 	.word	0x40000c00
 8000f30:	200000a8 	.word	0x200000a8
 8000f34:	200000c9 	.word	0x200000c9
 8000f38:	200000c8 	.word	0x200000c8
 8000f3c:	200000ca 	.word	0x200000ca
 8000f40:	200000d0 	.word	0x200000d0
 8000f44:	200000a0 	.word	0x200000a0
 8000f48:	20000000 	.word	0x20000000

08000f4c <TIM5_IRQHandler>:
		}

	}
}
extern "C" void TIM5_IRQHandler(void) {
 8000f4c:	b480      	push	{r7}
 8000f4e:	af00      	add	r7, sp, #0
	if (TIM5->SR & TIM_SR_UIF) // if UIF flag is set
 8000f50:	4b0d      	ldr	r3, [pc, #52]	; (8000f88 <TIM5_IRQHandler+0x3c>)
 8000f52:	8a1b      	ldrh	r3, [r3, #16]
 8000f54:	b29b      	uxth	r3, r3
 8000f56:	f003 0301 	and.w	r3, r3, #1
 8000f5a:	2b00      	cmp	r3, #0
 8000f5c:	bf14      	ite	ne
 8000f5e:	2301      	movne	r3, #1
 8000f60:	2300      	moveq	r3, #0
 8000f62:	b2db      	uxtb	r3, r3
 8000f64:	2b00      	cmp	r3, #0
 8000f66:	d00a      	beq.n	8000f7e <TIM5_IRQHandler+0x32>
	{
		TIM5->SR &= ~TIM_SR_UIF; // clear UIF flag
 8000f68:	4b07      	ldr	r3, [pc, #28]	; (8000f88 <TIM5_IRQHandler+0x3c>)
 8000f6a:	8a1b      	ldrh	r3, [r3, #16]
 8000f6c:	b29b      	uxth	r3, r3
 8000f6e:	4a06      	ldr	r2, [pc, #24]	; (8000f88 <TIM5_IRQHandler+0x3c>)
 8000f70:	f023 0301 	bic.w	r3, r3, #1
 8000f74:	b29b      	uxth	r3, r3
 8000f76:	8213      	strh	r3, [r2, #16]
		serialPcPauseCompleted = true;
 8000f78:	4b04      	ldr	r3, [pc, #16]	; (8000f8c <TIM5_IRQHandler+0x40>)
 8000f7a:	2201      	movs	r2, #1
 8000f7c:	701a      	strb	r2, [r3, #0]

	}

}
 8000f7e:	bf00      	nop
 8000f80:	46bd      	mov	sp, r7
 8000f82:	f85d 7b04 	ldr.w	r7, [sp], #4
 8000f86:	4770      	bx	lr
 8000f88:	40000c00 	.word	0x40000c00
 8000f8c:	200000a0 	.word	0x200000a0

08000f90 <_Z41__static_initialization_and_destruction_0ii>:
 8000f90:	b580      	push	{r7, lr}
 8000f92:	b084      	sub	sp, #16
 8000f94:	af00      	add	r7, sp, #0
 8000f96:	6078      	str	r0, [r7, #4]
 8000f98:	6039      	str	r1, [r7, #0]
 8000f9a:	687b      	ldr	r3, [r7, #4]
 8000f9c:	2b01      	cmp	r3, #1
 8000f9e:	d115      	bne.n	8000fcc <_Z41__static_initialization_and_destruction_0ii+0x3c>
 8000fa0:	683b      	ldr	r3, [r7, #0]
 8000fa2:	f64f 72ff 	movw	r2, #65535	; 0xffff
 8000fa6:	4293      	cmp	r3, r2
 8000fa8:	d110      	bne.n	8000fcc <_Z41__static_initialization_and_destruction_0ii+0x3c>
std::string message= "<Fuck>";
 8000faa:	f107 030c 	add.w	r3, r7, #12
 8000fae:	4618      	mov	r0, r3
 8000fb0:	f000 f990 	bl	80012d4 <_ZNSaIcEC1Ev>
 8000fb4:	f107 030c 	add.w	r3, r7, #12
 8000fb8:	461a      	mov	r2, r3
 8000fba:	490c      	ldr	r1, [pc, #48]	; (8000fec <_Z41__static_initialization_and_destruction_0ii+0x5c>)
 8000fbc:	480c      	ldr	r0, [pc, #48]	; (8000ff0 <_Z41__static_initialization_and_destruction_0ii+0x60>)
 8000fbe:	f000 f9e9 	bl	8001394 <_ZNSt7__cxx1112basic_stringIcSt11char_traitsIcESaIcEEC1EPKcRKS3_>
 8000fc2:	f107 030c 	add.w	r3, r7, #12
 8000fc6:	4618      	mov	r0, r3
 8000fc8:	f000 f985 	bl	80012d6 <_ZNSaIcED1Ev>
 8000fcc:	687b      	ldr	r3, [r7, #4]
 8000fce:	2b00      	cmp	r3, #0
 8000fd0:	d107      	bne.n	8000fe2 <_Z41__static_initialization_and_destruction_0ii+0x52>
 8000fd2:	683b      	ldr	r3, [r7, #0]
 8000fd4:	f64f 72ff 	movw	r2, #65535	; 0xffff
 8000fd8:	4293      	cmp	r3, r2
 8000fda:	d102      	bne.n	8000fe2 <_Z41__static_initialization_and_destruction_0ii+0x52>
 8000fdc:	4804      	ldr	r0, [pc, #16]	; (8000ff0 <_Z41__static_initialization_and_destruction_0ii+0x60>)
 8000fde:	f000 f9af 	bl	8001340 <_ZNSt7__cxx1112basic_stringIcSt11char_traitsIcESaIcEED1Ev>
}
 8000fe2:	bf00      	nop
 8000fe4:	3710      	adds	r7, #16
 8000fe6:	46bd      	mov	sp, r7
 8000fe8:	bd80      	pop	{r7, pc}
 8000fea:	bf00      	nop
 8000fec:	080016a4 	.word	0x080016a4
 8000ff0:	200000b0 	.word	0x200000b0

08000ff4 <_GLOBAL__sub_I_serialPcPauseCompleted>:
 8000ff4:	b580      	push	{r7, lr}
 8000ff6:	af00      	add	r7, sp, #0
 8000ff8:	f64f 71ff 	movw	r1, #65535	; 0xffff
 8000ffc:	2001      	movs	r0, #1
 8000ffe:	f7ff ffc7 	bl	8000f90 <_Z41__static_initialization_and_destruction_0ii>
 8001002:	bd80      	pop	{r7, pc}

08001004 <_GLOBAL__sub_D_serialPcPauseCompleted>:
 8001004:	b580      	push	{r7, lr}
 8001006:	af00      	add	r7, sp, #0
 8001008:	f64f 71ff 	movw	r1, #65535	; 0xffff
 800100c:	2000      	movs	r0, #0
 800100e:	f7ff ffbf 	bl	8000f90 <_Z41__static_initialization_and_destruction_0ii>
 8001012:	bd80      	pop	{r7, pc}

08001014 <_getpid>:
 8001014:	b480      	push	{r7}
 8001016:	af00      	add	r7, sp, #0
 8001018:	2301      	movs	r3, #1
 800101a:	4618      	mov	r0, r3
 800101c:	46bd      	mov	sp, r7
 800101e:	f85d 7b04 	ldr.w	r7, [sp], #4
 8001022:	4770      	bx	lr

08001024 <_kill>:
 8001024:	b580      	push	{r7, lr}
 8001026:	b082      	sub	sp, #8
 8001028:	af00      	add	r7, sp, #0
 800102a:	6078      	str	r0, [r7, #4]
 800102c:	6039      	str	r1, [r7, #0]
 800102e:	f000 f9d5 	bl	80013dc <__errno>
 8001032:	4602      	mov	r2, r0
 8001034:	2316      	movs	r3, #22
 8001036:	6013      	str	r3, [r2, #0]
 8001038:	f04f 33ff 	mov.w	r3, #4294967295
 800103c:	4618      	mov	r0, r3
 800103e:	3708      	adds	r7, #8
 8001040:	46bd      	mov	sp, r7
 8001042:	bd80      	pop	{r7, pc}

08001044 <_exit>:
 8001044:	b580      	push	{r7, lr}
 8001046:	b082      	sub	sp, #8
 8001048:	af00      	add	r7, sp, #0
 800104a:	6078      	str	r0, [r7, #4]
 800104c:	f04f 31ff 	mov.w	r1, #4294967295
 8001050:	6878      	ldr	r0, [r7, #4]
 8001052:	f7ff ffe7 	bl	8001024 <_kill>
 8001056:	e7fe      	b.n	8001056 <_exit+0x12>

08001058 <_sbrk>:
 8001058:	b580      	push	{r7, lr}
 800105a:	b084      	sub	sp, #16
 800105c:	af00      	add	r7, sp, #0
 800105e:	6078      	str	r0, [r7, #4]
 8001060:	4b11      	ldr	r3, [pc, #68]	; (80010a8 <_sbrk+0x50>)
 8001062:	681b      	ldr	r3, [r3, #0]
 8001064:	2b00      	cmp	r3, #0
 8001066:	d102      	bne.n	800106e <_sbrk+0x16>
 8001068:	4b0f      	ldr	r3, [pc, #60]	; (80010a8 <_sbrk+0x50>)
 800106a:	4a10      	ldr	r2, [pc, #64]	; (80010ac <_sbrk+0x54>)
 800106c:	601a      	str	r2, [r3, #0]
 800106e:	4b0e      	ldr	r3, [pc, #56]	; (80010a8 <_sbrk+0x50>)
 8001070:	681b      	ldr	r3, [r3, #0]
 8001072:	60fb      	str	r3, [r7, #12]
 8001074:	4b0c      	ldr	r3, [pc, #48]	; (80010a8 <_sbrk+0x50>)
 8001076:	681a      	ldr	r2, [r3, #0]
 8001078:	687b      	ldr	r3, [r7, #4]
 800107a:	4413      	add	r3, r2
 800107c:	466a      	mov	r2, sp
 800107e:	4293      	cmp	r3, r2
 8001080:	d907      	bls.n	8001092 <_sbrk+0x3a>
 8001082:	f000 f9ab 	bl	80013dc <__errno>
 8001086:	4602      	mov	r2, r0
 8001088:	230c      	movs	r3, #12
 800108a:	6013      	str	r3, [r2, #0]
 800108c:	f04f 33ff 	mov.w	r3, #4294967295
 8001090:	e006      	b.n	80010a0 <_sbrk+0x48>
 8001092:	4b05      	ldr	r3, [pc, #20]	; (80010a8 <_sbrk+0x50>)
 8001094:	681a      	ldr	r2, [r3, #0]
 8001096:	687b      	ldr	r3, [r7, #4]
 8001098:	4413      	add	r3, r2
 800109a:	4a03      	ldr	r2, [pc, #12]	; (80010a8 <_sbrk+0x50>)
 800109c:	6013      	str	r3, [r2, #0]
 800109e:	68fb      	ldr	r3, [r7, #12]
 80010a0:	4618      	mov	r0, r3
 80010a2:	3710      	adds	r7, #16
 80010a4:	46bd      	mov	sp, r7
 80010a6:	bd80      	pop	{r7, pc}
 80010a8:	200000f4 	.word	0x200000f4
 80010ac:	20000108 	.word	0x20000108

080010b0 <SystemInit>:
 80010b0:	b580      	push	{r7, lr}
 80010b2:	af00      	add	r7, sp, #0
 80010b4:	4b16      	ldr	r3, [pc, #88]	; (8001110 <SystemInit+0x60>)
 80010b6:	f8d3 3088 	ldr.w	r3, [r3, #136]	; 0x88
 80010ba:	4a15      	ldr	r2, [pc, #84]	; (8001110 <SystemInit+0x60>)
 80010bc:	f443 0370 	orr.w	r3, r3, #15728640	; 0xf00000
 80010c0:	f8c2 3088 	str.w	r3, [r2, #136]	; 0x88
 80010c4:	4b13      	ldr	r3, [pc, #76]	; (8001114 <SystemInit+0x64>)
 80010c6:	681b      	ldr	r3, [r3, #0]
 80010c8:	4a12      	ldr	r2, [pc, #72]	; (8001114 <SystemInit+0x64>)
 80010ca:	f043 0301 	orr.w	r3, r3, #1
 80010ce:	6013      	str	r3, [r2, #0]
 80010d0:	4b10      	ldr	r3, [pc, #64]	; (8001114 <SystemInit+0x64>)
 80010d2:	2200      	movs	r2, #0
 80010d4:	609a      	str	r2, [r3, #8]
 80010d6:	4b0f      	ldr	r3, [pc, #60]	; (8001114 <SystemInit+0x64>)
 80010d8:	681b      	ldr	r3, [r3, #0]
 80010da:	4a0e      	ldr	r2, [pc, #56]	; (8001114 <SystemInit+0x64>)
 80010dc:	f023 7384 	bic.w	r3, r3, #17301504	; 0x1080000
 80010e0:	f423 3380 	bic.w	r3, r3, #65536	; 0x10000
 80010e4:	6013      	str	r3, [r2, #0]
 80010e6:	4b0b      	ldr	r3, [pc, #44]	; (8001114 <SystemInit+0x64>)
 80010e8:	4a0b      	ldr	r2, [pc, #44]	; (8001118 <SystemInit+0x68>)
 80010ea:	605a      	str	r2, [r3, #4]
 80010ec:	4b09      	ldr	r3, [pc, #36]	; (8001114 <SystemInit+0x64>)
 80010ee:	681b      	ldr	r3, [r3, #0]
 80010f0:	4a08      	ldr	r2, [pc, #32]	; (8001114 <SystemInit+0x64>)
 80010f2:	f423 2380 	bic.w	r3, r3, #262144	; 0x40000
 80010f6:	6013      	str	r3, [r2, #0]
 80010f8:	4b06      	ldr	r3, [pc, #24]	; (8001114 <SystemInit+0x64>)
 80010fa:	2200      	movs	r2, #0
 80010fc:	60da      	str	r2, [r3, #12]
 80010fe:	f000 f80d 	bl	800111c <SetSysClock>
 8001102:	4b03      	ldr	r3, [pc, #12]	; (8001110 <SystemInit+0x60>)
 8001104:	f04f 6200 	mov.w	r2, #134217728	; 0x8000000
 8001108:	609a      	str	r2, [r3, #8]
 800110a:	bf00      	nop
 800110c:	bd80      	pop	{r7, pc}
 800110e:	bf00      	nop
 8001110:	e000ed00 	.word	0xe000ed00
 8001114:	40023800 	.word	0x40023800
 8001118:	24003010 	.word	0x24003010

0800111c <SetSysClock>:
 800111c:	b480      	push	{r7}
 800111e:	b083      	sub	sp, #12
 8001120:	af00      	add	r7, sp, #0
 8001122:	2300      	movs	r3, #0
 8001124:	607b      	str	r3, [r7, #4]
 8001126:	2300      	movs	r3, #0
 8001128:	603b      	str	r3, [r7, #0]
 800112a:	4b43      	ldr	r3, [pc, #268]	; (8001238 <SetSysClock+0x11c>)
 800112c:	681b      	ldr	r3, [r3, #0]
 800112e:	4a42      	ldr	r2, [pc, #264]	; (8001238 <SetSysClock+0x11c>)
 8001130:	f443 3380 	orr.w	r3, r3, #65536	; 0x10000
 8001134:	6013      	str	r3, [r2, #0]
 8001136:	4b40      	ldr	r3, [pc, #256]	; (8001238 <SetSysClock+0x11c>)
 8001138:	681b      	ldr	r3, [r3, #0]
 800113a:	f403 3300 	and.w	r3, r3, #131072	; 0x20000
 800113e:	603b      	str	r3, [r7, #0]
 8001140:	687b      	ldr	r3, [r7, #4]
 8001142:	3301      	adds	r3, #1
 8001144:	607b      	str	r3, [r7, #4]
 8001146:	683b      	ldr	r3, [r7, #0]
 8001148:	2b00      	cmp	r3, #0
 800114a:	d103      	bne.n	8001154 <SetSysClock+0x38>
 800114c:	687b      	ldr	r3, [r7, #4]
 800114e:	f5b3 4fa0 	cmp.w	r3, #20480	; 0x5000
 8001152:	d1f0      	bne.n	8001136 <SetSysClock+0x1a>
 8001154:	4b38      	ldr	r3, [pc, #224]	; (8001238 <SetSysClock+0x11c>)
 8001156:	681b      	ldr	r3, [r3, #0]
 8001158:	f403 3300 	and.w	r3, r3, #131072	; 0x20000
 800115c:	2b00      	cmp	r3, #0
 800115e:	d002      	beq.n	8001166 <SetSysClock+0x4a>
 8001160:	2301      	movs	r3, #1
 8001162:	603b      	str	r3, [r7, #0]
 8001164:	e001      	b.n	800116a <SetSysClock+0x4e>
 8001166:	2300      	movs	r3, #0
 8001168:	603b      	str	r3, [r7, #0]
 800116a:	683b      	ldr	r3, [r7, #0]
 800116c:	2b01      	cmp	r3, #1
 800116e:	d15c      	bne.n	800122a <SetSysClock+0x10e>
 8001170:	4b31      	ldr	r3, [pc, #196]	; (8001238 <SetSysClock+0x11c>)
 8001172:	6c1b      	ldr	r3, [r3, #64]	; 0x40
 8001174:	4a30      	ldr	r2, [pc, #192]	; (8001238 <SetSysClock+0x11c>)
 8001176:	f043 5380 	orr.w	r3, r3, #268435456	; 0x10000000
 800117a:	6413      	str	r3, [r2, #64]	; 0x40
 800117c:	4b2f      	ldr	r3, [pc, #188]	; (800123c <SetSysClock+0x120>)
 800117e:	681b      	ldr	r3, [r3, #0]
 8001180:	4a2e      	ldr	r2, [pc, #184]	; (800123c <SetSysClock+0x120>)
 8001182:	f443 4340 	orr.w	r3, r3, #49152	; 0xc000
 8001186:	6013      	str	r3, [r2, #0]
 8001188:	4b2b      	ldr	r3, [pc, #172]	; (8001238 <SetSysClock+0x11c>)
 800118a:	4a2b      	ldr	r2, [pc, #172]	; (8001238 <SetSysClock+0x11c>)
 800118c:	689b      	ldr	r3, [r3, #8]
 800118e:	6093      	str	r3, [r2, #8]
 8001190:	4b29      	ldr	r3, [pc, #164]	; (8001238 <SetSysClock+0x11c>)
 8001192:	689b      	ldr	r3, [r3, #8]
 8001194:	4a28      	ldr	r2, [pc, #160]	; (8001238 <SetSysClock+0x11c>)
 8001196:	f443 4300 	orr.w	r3, r3, #32768	; 0x8000
 800119a:	6093      	str	r3, [r2, #8]
 800119c:	4b26      	ldr	r3, [pc, #152]	; (8001238 <SetSysClock+0x11c>)
 800119e:	689b      	ldr	r3, [r3, #8]
 80011a0:	4a25      	ldr	r2, [pc, #148]	; (8001238 <SetSysClock+0x11c>)
 80011a2:	f443 53a0 	orr.w	r3, r3, #5120	; 0x1400
 80011a6:	6093      	str	r3, [r2, #8]
 80011a8:	4b23      	ldr	r3, [pc, #140]	; (8001238 <SetSysClock+0x11c>)
 80011aa:	4a25      	ldr	r2, [pc, #148]	; (8001240 <SetSysClock+0x124>)
 80011ac:	605a      	str	r2, [r3, #4]
 80011ae:	4b22      	ldr	r3, [pc, #136]	; (8001238 <SetSysClock+0x11c>)
 80011b0:	681b      	ldr	r3, [r3, #0]
 80011b2:	4a21      	ldr	r2, [pc, #132]	; (8001238 <SetSysClock+0x11c>)
 80011b4:	f043 7380 	orr.w	r3, r3, #16777216	; 0x1000000
 80011b8:	6013      	str	r3, [r2, #0]
 80011ba:	bf00      	nop
 80011bc:	4b1e      	ldr	r3, [pc, #120]	; (8001238 <SetSysClock+0x11c>)
 80011be:	681b      	ldr	r3, [r3, #0]
 80011c0:	f003 7300 	and.w	r3, r3, #33554432	; 0x2000000
 80011c4:	2b00      	cmp	r3, #0
 80011c6:	d0f9      	beq.n	80011bc <SetSysClock+0xa0>
 80011c8:	4b1c      	ldr	r3, [pc, #112]	; (800123c <SetSysClock+0x120>)
 80011ca:	681b      	ldr	r3, [r3, #0]
 80011cc:	4a1b      	ldr	r2, [pc, #108]	; (800123c <SetSysClock+0x120>)
 80011ce:	f443 3380 	orr.w	r3, r3, #65536	; 0x10000
 80011d2:	6013      	str	r3, [r2, #0]
 80011d4:	bf00      	nop
 80011d6:	4b19      	ldr	r3, [pc, #100]	; (800123c <SetSysClock+0x120>)
 80011d8:	685b      	ldr	r3, [r3, #4]
 80011da:	f403 3380 	and.w	r3, r3, #65536	; 0x10000
 80011de:	2b00      	cmp	r3, #0
 80011e0:	d0f9      	beq.n	80011d6 <SetSysClock+0xba>
 80011e2:	4b16      	ldr	r3, [pc, #88]	; (800123c <SetSysClock+0x120>)
 80011e4:	681b      	ldr	r3, [r3, #0]
 80011e6:	4a15      	ldr	r2, [pc, #84]	; (800123c <SetSysClock+0x120>)
 80011e8:	f443 3300 	orr.w	r3, r3, #131072	; 0x20000
 80011ec:	6013      	str	r3, [r2, #0]
 80011ee:	bf00      	nop
 80011f0:	4b12      	ldr	r3, [pc, #72]	; (800123c <SetSysClock+0x120>)
 80011f2:	685b      	ldr	r3, [r3, #4]
 80011f4:	f403 3300 	and.w	r3, r3, #131072	; 0x20000
 80011f8:	2b00      	cmp	r3, #0
 80011fa:	d0f9      	beq.n	80011f0 <SetSysClock+0xd4>
 80011fc:	4b11      	ldr	r3, [pc, #68]	; (8001244 <SetSysClock+0x128>)
 80011fe:	f240 7205 	movw	r2, #1797	; 0x705
 8001202:	601a      	str	r2, [r3, #0]
 8001204:	4b0c      	ldr	r3, [pc, #48]	; (8001238 <SetSysClock+0x11c>)
 8001206:	689b      	ldr	r3, [r3, #8]
 8001208:	4a0b      	ldr	r2, [pc, #44]	; (8001238 <SetSysClock+0x11c>)
 800120a:	f023 0303 	bic.w	r3, r3, #3
 800120e:	6093      	str	r3, [r2, #8]
 8001210:	4b09      	ldr	r3, [pc, #36]	; (8001238 <SetSysClock+0x11c>)
 8001212:	689b      	ldr	r3, [r3, #8]
 8001214:	4a08      	ldr	r2, [pc, #32]	; (8001238 <SetSysClock+0x11c>)
 8001216:	f043 0302 	orr.w	r3, r3, #2
 800121a:	6093      	str	r3, [r2, #8]
 800121c:	bf00      	nop
 800121e:	4b06      	ldr	r3, [pc, #24]	; (8001238 <SetSysClock+0x11c>)
 8001220:	689b      	ldr	r3, [r3, #8]
 8001222:	f003 030c 	and.w	r3, r3, #12
 8001226:	2b08      	cmp	r3, #8
 8001228:	d1f9      	bne.n	800121e <SetSysClock+0x102>
 800122a:	bf00      	nop
 800122c:	370c      	adds	r7, #12
 800122e:	46bd      	mov	sp, r7
 8001230:	f85d 7b04 	ldr.w	r7, [sp], #4
 8001234:	4770      	bx	lr
 8001236:	bf00      	nop
 8001238:	40023800 	.word	0x40023800
 800123c:	40007000 	.word	0x40007000
 8001240:	77405a08 	.word	0x77405a08
 8001244:	40023c00 	.word	0x40023c00

08001248 <Reset_Handler>:
 8001248:	480d      	ldr	r0, [pc, #52]	; (8001280 <LoopForever+0x2>)
 800124a:	4685      	mov	sp, r0
 800124c:	480d      	ldr	r0, [pc, #52]	; (8001284 <LoopForever+0x6>)
 800124e:	490e      	ldr	r1, [pc, #56]	; (8001288 <LoopForever+0xa>)
 8001250:	4a0e      	ldr	r2, [pc, #56]	; (800128c <LoopForever+0xe>)
 8001252:	2300      	movs	r3, #0
 8001254:	e002      	b.n	800125c <LoopCopyDataInit>

08001256 <CopyDataInit>:
 8001256:	58d4      	ldr	r4, [r2, r3]
 8001258:	50c4      	str	r4, [r0, r3]
 800125a:	3304      	adds	r3, #4

0800125c <LoopCopyDataInit>:
 800125c:	18c4      	adds	r4, r0, r3
 800125e:	428c      	cmp	r4, r1
 8001260:	d3f9      	bcc.n	8001256 <CopyDataInit>
 8001262:	4a0b      	ldr	r2, [pc, #44]	; (8001290 <LoopForever+0x12>)
 8001264:	4c0b      	ldr	r4, [pc, #44]	; (8001294 <LoopForever+0x16>)
 8001266:	2300      	movs	r3, #0
 8001268:	e001      	b.n	800126e <LoopFillZerobss>

0800126a <FillZerobss>:
 800126a:	6013      	str	r3, [r2, #0]
 800126c:	3204      	adds	r2, #4

0800126e <LoopFillZerobss>:
 800126e:	42a2      	cmp	r2, r4
 8001270:	d3fb      	bcc.n	800126a <FillZerobss>
 8001272:	f7ff ff1d 	bl	80010b0 <SystemInit>
 8001276:	f000 f8b7 	bl	80013e8 <__libc_init_array>
 800127a:	f7ff fd9d 	bl	8000db8 <main>

0800127e <LoopForever>:
 800127e:	e7fe      	b.n	800127e <LoopForever>
 8001280:	20020000 	.word	0x20020000
 8001284:	20000000 	.word	0x20000000
 8001288:	20000080 	.word	0x20000080
 800128c:	08001710 	.word	0x08001710
 8001290:	20000080 	.word	0x20000080
 8001294:	20000108 	.word	0x20000108

08001298 <ADC_IRQHandler>:
 8001298:	e7fe      	b.n	8001298 <ADC_IRQHandler>

0800129a <_ZdlPvj>:
 800129a:	f000 b819 	b.w	80012d0 <_ZdlPv>

0800129e <_Znwj>:
 800129e:	b510      	push	{r4, lr}
 80012a0:	2800      	cmp	r0, #0
 80012a2:	bf14      	ite	ne
 80012a4:	4604      	movne	r4, r0
 80012a6:	2401      	moveq	r4, #1
 80012a8:	4620      	mov	r0, r4
 80012aa:	f000 f8c1 	bl	8001430 <malloc>
 80012ae:	b930      	cbnz	r0, 80012be <_Znwj+0x20>
 80012b0:	f000 f806 	bl	80012c0 <_ZSt15get_new_handlerv>
 80012b4:	b908      	cbnz	r0, 80012ba <_Znwj+0x1c>
 80012b6:	f000 f889 	bl	80013cc <abort>
 80012ba:	4780      	blx	r0
 80012bc:	e7f4      	b.n	80012a8 <_Znwj+0xa>
 80012be:	bd10      	pop	{r4, pc}

080012c0 <_ZSt15get_new_handlerv>:
 80012c0:	4b02      	ldr	r3, [pc, #8]	; (80012cc <_ZSt15get_new_handlerv+0xc>)
 80012c2:	6818      	ldr	r0, [r3, #0]
 80012c4:	f3bf 8f5b 	dmb	ish
 80012c8:	4770      	bx	lr
 80012ca:	bf00      	nop
 80012cc:	200000f8 	.word	0x200000f8

080012d0 <_ZdlPv>:
 80012d0:	f000 b8b6 	b.w	8001440 <free>

080012d4 <_ZNSaIcEC1Ev>:
 80012d4:	4770      	bx	lr

080012d6 <_ZNSaIcED1Ev>:
 80012d6:	4770      	bx	lr

080012d8 <_ZNSt11char_traitsIcE4copyEPcPKcj>:
 80012d8:	b10a      	cbz	r2, 80012de <_ZNSt11char_traitsIcE4copyEPcPKcj+0x6>
 80012da:	f000 b8b9 	b.w	8001450 <memcpy>
 80012de:	4770      	bx	lr

080012e0 <_ZNSt7__cxx1112basic_stringIcSt11char_traitsIcESaIcEE9_M_createERjj>:
 80012e0:	b508      	push	{r3, lr}
 80012e2:	680b      	ldr	r3, [r1, #0]
 80012e4:	2b00      	cmp	r3, #0
 80012e6:	da02      	bge.n	80012ee <_ZNSt7__cxx1112basic_stringIcSt11char_traitsIcESaIcEE9_M_createERjj+0xe>
 80012e8:	4809      	ldr	r0, [pc, #36]	; (8001310 <_ZNSt7__cxx1112basic_stringIcSt11char_traitsIcESaIcEE9_M_createERjj+0x30>)
 80012ea:	f000 f86c 	bl	80013c6 <_ZSt20__throw_length_errorPKc>
 80012ee:	4293      	cmp	r3, r2
 80012f0:	d908      	bls.n	8001304 <_ZNSt7__cxx1112basic_stringIcSt11char_traitsIcESaIcEE9_M_createERjj+0x24>
 80012f2:	0052      	lsls	r2, r2, #1
 80012f4:	4293      	cmp	r3, r2
 80012f6:	d205      	bcs.n	8001304 <_ZNSt7__cxx1112basic_stringIcSt11char_traitsIcESaIcEE9_M_createERjj+0x24>
 80012f8:	2a00      	cmp	r2, #0
 80012fa:	bfb6      	itet	lt
 80012fc:	f06f 4300 	mvnlt.w	r3, #2147483648	; 0x80000000
 8001300:	600a      	strge	r2, [r1, #0]
 8001302:	600b      	strlt	r3, [r1, #0]
 8001304:	6808      	ldr	r0, [r1, #0]
 8001306:	e8bd 4008 	ldmia.w	sp!, {r3, lr}
 800130a:	3001      	adds	r0, #1
 800130c:	f7ff bfc7 	b.w	800129e <_Znwj>
 8001310:	080016e6 	.word	0x080016e6

08001314 <_ZNSt7__cxx1112basic_stringIcSt11char_traitsIcESaIcEE10_M_disposeEv>:
 8001314:	4603      	mov	r3, r0
 8001316:	f853 0b08 	ldr.w	r0, [r3], #8
 800131a:	4298      	cmp	r0, r3
 800131c:	d001      	beq.n	8001322 <_ZNSt7__cxx1112basic_stringIcSt11char_traitsIcESaIcEE10_M_disposeEv+0xe>
 800131e:	f7ff bfd7 	b.w	80012d0 <_ZdlPv>
 8001322:	4770      	bx	lr

08001324 <_ZNSt7__cxx1112basic_stringIcSt11char_traitsIcESaIcEE7_S_copyEPcPKcj>:
 8001324:	2a01      	cmp	r2, #1
 8001326:	b510      	push	{r4, lr}
 8001328:	d102      	bne.n	8001330 <_ZNSt7__cxx1112basic_stringIcSt11char_traitsIcESaIcEE7_S_copyEPcPKcj+0xc>
 800132a:	780a      	ldrb	r2, [r1, #0]
 800132c:	7002      	strb	r2, [r0, #0]
 800132e:	bd10      	pop	{r4, pc}
 8001330:	f7ff ffd2 	bl	80012d8 <_ZNSt11char_traitsIcE4copyEPcPKcj>
 8001334:	e7fb      	b.n	800132e <_ZNSt7__cxx1112basic_stringIcSt11char_traitsIcESaIcEE7_S_copyEPcPKcj+0xa>

08001336 <_ZNSt7__cxx1112basic_stringIcSt11char_traitsIcESaIcEE13_S_copy_charsEPcPKcS7_>:
 8001336:	b508      	push	{r3, lr}
 8001338:	1a52      	subs	r2, r2, r1
 800133a:	f7ff fff3 	bl	8001324 <_ZNSt7__cxx1112basic_stringIcSt11char_traitsIcESaIcEE7_S_copyEPcPKcj>
 800133e:	bd08      	pop	{r3, pc}

08001340 <_ZNSt7__cxx1112basic_stringIcSt11char_traitsIcESaIcEED1Ev>:
 8001340:	b510      	push	{r4, lr}
 8001342:	4604      	mov	r4, r0
 8001344:	f7ff ffe6 	bl	8001314 <_ZNSt7__cxx1112basic_stringIcSt11char_traitsIcESaIcEE10_M_disposeEv>
 8001348:	4620      	mov	r0, r4
 800134a:	bd10      	pop	{r4, pc}

0800134c <_ZNSt7__cxx1112basic_stringIcSt11char_traitsIcESaIcEE12_M_constructIPKcEEvT_S8_St20forward_iterator_tag>:
 800134c:	b573      	push	{r0, r1, r4, r5, r6, lr}
 800134e:	4604      	mov	r4, r0
 8001350:	4616      	mov	r6, r2
 8001352:	460d      	mov	r5, r1
 8001354:	b919      	cbnz	r1, 800135e <_ZNSt7__cxx1112basic_stringIcSt11char_traitsIcESaIcEE12_M_constructIPKcEEvT_S8_St20forward_iterator_tag+0x12>
 8001356:	b112      	cbz	r2, 800135e <_ZNSt7__cxx1112basic_stringIcSt11char_traitsIcESaIcEE12_M_constructIPKcEEvT_S8_St20forward_iterator_tag+0x12>
 8001358:	480d      	ldr	r0, [pc, #52]	; (8001390 <_ZNSt7__cxx1112basic_stringIcSt11char_traitsIcESaIcEE12_M_constructIPKcEEvT_S8_St20forward_iterator_tag+0x44>)
 800135a:	f000 f831 	bl	80013c0 <_ZSt19__throw_logic_errorPKc>
 800135e:	1b73      	subs	r3, r6, r5
 8001360:	2b0f      	cmp	r3, #15
 8001362:	9301      	str	r3, [sp, #4]
 8001364:	d907      	bls.n	8001376 <_ZNSt7__cxx1112basic_stringIcSt11char_traitsIcESaIcEE12_M_constructIPKcEEvT_S8_St20forward_iterator_tag+0x2a>
 8001366:	2200      	movs	r2, #0
 8001368:	a901      	add	r1, sp, #4
 800136a:	4620      	mov	r0, r4
 800136c:	f7ff ffb8 	bl	80012e0 <_ZNSt7__cxx1112basic_stringIcSt11char_traitsIcESaIcEE9_M_createERjj>
 8001370:	9b01      	ldr	r3, [sp, #4]
 8001372:	6020      	str	r0, [r4, #0]
 8001374:	60a3      	str	r3, [r4, #8]
 8001376:	4632      	mov	r2, r6
 8001378:	4629      	mov	r1, r5
 800137a:	6820      	ldr	r0, [r4, #0]
 800137c:	f7ff ffdb 	bl	8001336 <_ZNSt7__cxx1112basic_stringIcSt11char_traitsIcESaIcEE13_S_copy_charsEPcPKcS7_>
 8001380:	9b01      	ldr	r3, [sp, #4]
 8001382:	6822      	ldr	r2, [r4, #0]
 8001384:	6063      	str	r3, [r4, #4]
 8001386:	2100      	movs	r1, #0
 8001388:	54d1      	strb	r1, [r2, r3]
 800138a:	b002      	add	sp, #8
 800138c:	bd70      	pop	{r4, r5, r6, pc}
 800138e:	bf00      	nop
 8001390:	080016bc 	.word	0x080016bc

08001394 <_ZNSt7__cxx1112basic_stringIcSt11char_traitsIcESaIcEEC1EPKcRKS3_>:
 8001394:	b538      	push	{r3, r4, r5, lr}
 8001396:	f100 0308 	add.w	r3, r0, #8
 800139a:	4604      	mov	r4, r0
 800139c:	6003      	str	r3, [r0, #0]
 800139e:	460d      	mov	r5, r1
 80013a0:	b159      	cbz	r1, 80013ba <_ZNSt7__cxx1112basic_stringIcSt11char_traitsIcESaIcEEC1EPKcRKS3_+0x26>
 80013a2:	4608      	mov	r0, r1
 80013a4:	f7fe ff2e 	bl	8000204 <strlen>
 80013a8:	182a      	adds	r2, r5, r0
 80013aa:	4620      	mov	r0, r4
 80013ac:	f04f 0300 	mov.w	r3, #0
 80013b0:	4629      	mov	r1, r5
 80013b2:	f7ff ffcb 	bl	800134c <_ZNSt7__cxx1112basic_stringIcSt11char_traitsIcESaIcEE12_M_constructIPKcEEvT_S8_St20forward_iterator_tag>
 80013b6:	4620      	mov	r0, r4
 80013b8:	bd38      	pop	{r3, r4, r5, pc}
 80013ba:	f04f 32ff 	mov.w	r2, #4294967295
 80013be:	e7f4      	b.n	80013aa <_ZNSt7__cxx1112basic_stringIcSt11char_traitsIcESaIcEEC1EPKcRKS3_+0x16>

080013c0 <_ZSt19__throw_logic_errorPKc>:
 80013c0:	b508      	push	{r3, lr}
 80013c2:	f000 f803 	bl	80013cc <abort>

080013c6 <_ZSt20__throw_length_errorPKc>:
 80013c6:	b508      	push	{r3, lr}
 80013c8:	f000 f800 	bl	80013cc <abort>

080013cc <abort>:
 80013cc:	b508      	push	{r3, lr}
 80013ce:	2006      	movs	r0, #6
 80013d0:	f000 f92a 	bl	8001628 <raise>
 80013d4:	2001      	movs	r0, #1
 80013d6:	f7ff fe35 	bl	8001044 <_exit>
	...

080013dc <__errno>:
 80013dc:	4b01      	ldr	r3, [pc, #4]	; (80013e4 <__errno+0x8>)
 80013de:	6818      	ldr	r0, [r3, #0]
 80013e0:	4770      	bx	lr
 80013e2:	bf00      	nop
 80013e4:	2000001c 	.word	0x2000001c

080013e8 <__libc_init_array>:
 80013e8:	b570      	push	{r4, r5, r6, lr}
 80013ea:	4e0d      	ldr	r6, [pc, #52]	; (8001420 <__libc_init_array+0x38>)
 80013ec:	4c0d      	ldr	r4, [pc, #52]	; (8001424 <__libc_init_array+0x3c>)
 80013ee:	1ba4      	subs	r4, r4, r6
 80013f0:	10a4      	asrs	r4, r4, #2
 80013f2:	2500      	movs	r5, #0
 80013f4:	42a5      	cmp	r5, r4
 80013f6:	d109      	bne.n	800140c <__libc_init_array+0x24>
 80013f8:	4e0b      	ldr	r6, [pc, #44]	; (8001428 <__libc_init_array+0x40>)
 80013fa:	4c0c      	ldr	r4, [pc, #48]	; (800142c <__libc_init_array+0x44>)
 80013fc:	f000 f932 	bl	8001664 <_init>
 8001400:	1ba4      	subs	r4, r4, r6
 8001402:	10a4      	asrs	r4, r4, #2
 8001404:	2500      	movs	r5, #0
 8001406:	42a5      	cmp	r5, r4
 8001408:	d105      	bne.n	8001416 <__libc_init_array+0x2e>
 800140a:	bd70      	pop	{r4, r5, r6, pc}
 800140c:	f856 3025 	ldr.w	r3, [r6, r5, lsl #2]
 8001410:	4798      	blx	r3
 8001412:	3501      	adds	r5, #1
 8001414:	e7ee      	b.n	80013f4 <__libc_init_array+0xc>
 8001416:	f856 3025 	ldr.w	r3, [r6, r5, lsl #2]
 800141a:	4798      	blx	r3
 800141c:	3501      	adds	r5, #1
 800141e:	e7f2      	b.n	8001406 <__libc_init_array+0x1e>
 8001420:	08001700 	.word	0x08001700
 8001424:	08001700 	.word	0x08001700
 8001428:	08001700 	.word	0x08001700
 800142c:	08001708 	.word	0x08001708

08001430 <malloc>:
 8001430:	4b02      	ldr	r3, [pc, #8]	; (800143c <malloc+0xc>)
 8001432:	4601      	mov	r1, r0
 8001434:	6818      	ldr	r0, [r3, #0]
 8001436:	f000 b865 	b.w	8001504 <_malloc_r>
 800143a:	bf00      	nop
 800143c:	2000001c 	.word	0x2000001c

08001440 <free>:
 8001440:	4b02      	ldr	r3, [pc, #8]	; (800144c <free+0xc>)
 8001442:	4601      	mov	r1, r0
 8001444:	6818      	ldr	r0, [r3, #0]
 8001446:	f000 b80f 	b.w	8001468 <_free_r>
 800144a:	bf00      	nop
 800144c:	2000001c 	.word	0x2000001c

08001450 <memcpy>:
 8001450:	b510      	push	{r4, lr}
 8001452:	1e43      	subs	r3, r0, #1
 8001454:	440a      	add	r2, r1
 8001456:	4291      	cmp	r1, r2
 8001458:	d100      	bne.n	800145c <memcpy+0xc>
 800145a:	bd10      	pop	{r4, pc}
 800145c:	f811 4b01 	ldrb.w	r4, [r1], #1
 8001460:	f803 4f01 	strb.w	r4, [r3, #1]!
 8001464:	e7f7      	b.n	8001456 <memcpy+0x6>
	...

08001468 <_free_r>:
 8001468:	b538      	push	{r3, r4, r5, lr}
 800146a:	4605      	mov	r5, r0
 800146c:	2900      	cmp	r1, #0
 800146e:	d045      	beq.n	80014fc <_free_r+0x94>
 8001470:	f851 3c04 	ldr.w	r3, [r1, #-4]
 8001474:	1f0c      	subs	r4, r1, #4
 8001476:	2b00      	cmp	r3, #0
 8001478:	bfb8      	it	lt
 800147a:	18e4      	addlt	r4, r4, r3
 800147c:	f000 f8f0 	bl	8001660 <__malloc_lock>
 8001480:	4a1f      	ldr	r2, [pc, #124]	; (8001500 <_free_r+0x98>)
 8001482:	6813      	ldr	r3, [r2, #0]
 8001484:	4610      	mov	r0, r2
 8001486:	b933      	cbnz	r3, 8001496 <_free_r+0x2e>
 8001488:	6063      	str	r3, [r4, #4]
 800148a:	6014      	str	r4, [r2, #0]
 800148c:	4628      	mov	r0, r5
 800148e:	e8bd 4038 	ldmia.w	sp!, {r3, r4, r5, lr}
 8001492:	f000 b8e6 	b.w	8001662 <__malloc_unlock>
 8001496:	42a3      	cmp	r3, r4
 8001498:	d90c      	bls.n	80014b4 <_free_r+0x4c>
 800149a:	6821      	ldr	r1, [r4, #0]
 800149c:	1862      	adds	r2, r4, r1
 800149e:	4293      	cmp	r3, r2
 80014a0:	bf04      	itt	eq
 80014a2:	681a      	ldreq	r2, [r3, #0]
 80014a4:	685b      	ldreq	r3, [r3, #4]
 80014a6:	6063      	str	r3, [r4, #4]
 80014a8:	bf04      	itt	eq
 80014aa:	1852      	addeq	r2, r2, r1
 80014ac:	6022      	streq	r2, [r4, #0]
 80014ae:	6004      	str	r4, [r0, #0]
 80014b0:	e7ec      	b.n	800148c <_free_r+0x24>
 80014b2:	4613      	mov	r3, r2
 80014b4:	685a      	ldr	r2, [r3, #4]
 80014b6:	b10a      	cbz	r2, 80014bc <_free_r+0x54>
 80014b8:	42a2      	cmp	r2, r4
 80014ba:	d9fa      	bls.n	80014b2 <_free_r+0x4a>
 80014bc:	6819      	ldr	r1, [r3, #0]
 80014be:	1858      	adds	r0, r3, r1
 80014c0:	42a0      	cmp	r0, r4
 80014c2:	d10b      	bne.n	80014dc <_free_r+0x74>
 80014c4:	6820      	ldr	r0, [r4, #0]
 80014c6:	4401      	add	r1, r0
 80014c8:	1858      	adds	r0, r3, r1
 80014ca:	4282      	cmp	r2, r0
 80014cc:	6019      	str	r1, [r3, #0]
 80014ce:	d1dd      	bne.n	800148c <_free_r+0x24>
 80014d0:	6810      	ldr	r0, [r2, #0]
 80014d2:	6852      	ldr	r2, [r2, #4]
 80014d4:	605a      	str	r2, [r3, #4]
 80014d6:	4401      	add	r1, r0
 80014d8:	6019      	str	r1, [r3, #0]
 80014da:	e7d7      	b.n	800148c <_free_r+0x24>
 80014dc:	d902      	bls.n	80014e4 <_free_r+0x7c>
 80014de:	230c      	movs	r3, #12
 80014e0:	602b      	str	r3, [r5, #0]
 80014e2:	e7d3      	b.n	800148c <_free_r+0x24>
 80014e4:	6820      	ldr	r0, [r4, #0]
 80014e6:	1821      	adds	r1, r4, r0
 80014e8:	428a      	cmp	r2, r1
 80014ea:	bf04      	itt	eq
 80014ec:	6811      	ldreq	r1, [r2, #0]
 80014ee:	6852      	ldreq	r2, [r2, #4]
 80014f0:	6062      	str	r2, [r4, #4]
 80014f2:	bf04      	itt	eq
 80014f4:	1809      	addeq	r1, r1, r0
 80014f6:	6021      	streq	r1, [r4, #0]
 80014f8:	605c      	str	r4, [r3, #4]
 80014fa:	e7c7      	b.n	800148c <_free_r+0x24>
 80014fc:	bd38      	pop	{r3, r4, r5, pc}
 80014fe:	bf00      	nop
 8001500:	200000fc 	.word	0x200000fc

08001504 <_malloc_r>:
 8001504:	b570      	push	{r4, r5, r6, lr}
 8001506:	1ccd      	adds	r5, r1, #3
 8001508:	f025 0503 	bic.w	r5, r5, #3
 800150c:	3508      	adds	r5, #8
 800150e:	2d0c      	cmp	r5, #12
 8001510:	bf38      	it	cc
 8001512:	250c      	movcc	r5, #12
 8001514:	2d00      	cmp	r5, #0
 8001516:	4606      	mov	r6, r0
 8001518:	db01      	blt.n	800151e <_malloc_r+0x1a>
 800151a:	42a9      	cmp	r1, r5
 800151c:	d903      	bls.n	8001526 <_malloc_r+0x22>
 800151e:	230c      	movs	r3, #12
 8001520:	6033      	str	r3, [r6, #0]
 8001522:	2000      	movs	r0, #0
 8001524:	bd70      	pop	{r4, r5, r6, pc}
 8001526:	f000 f89b 	bl	8001660 <__malloc_lock>
 800152a:	4a21      	ldr	r2, [pc, #132]	; (80015b0 <_malloc_r+0xac>)
 800152c:	6814      	ldr	r4, [r2, #0]
 800152e:	4621      	mov	r1, r4
 8001530:	b991      	cbnz	r1, 8001558 <_malloc_r+0x54>
 8001532:	4c20      	ldr	r4, [pc, #128]	; (80015b4 <_malloc_r+0xb0>)
 8001534:	6823      	ldr	r3, [r4, #0]
 8001536:	b91b      	cbnz	r3, 8001540 <_malloc_r+0x3c>
 8001538:	4630      	mov	r0, r6
 800153a:	f000 f83d 	bl	80015b8 <_sbrk_r>
 800153e:	6020      	str	r0, [r4, #0]
 8001540:	4629      	mov	r1, r5
 8001542:	4630      	mov	r0, r6
 8001544:	f000 f838 	bl	80015b8 <_sbrk_r>
 8001548:	1c43      	adds	r3, r0, #1
 800154a:	d124      	bne.n	8001596 <_malloc_r+0x92>
 800154c:	230c      	movs	r3, #12
 800154e:	6033      	str	r3, [r6, #0]
 8001550:	4630      	mov	r0, r6
 8001552:	f000 f886 	bl	8001662 <__malloc_unlock>
 8001556:	e7e4      	b.n	8001522 <_malloc_r+0x1e>
 8001558:	680b      	ldr	r3, [r1, #0]
 800155a:	1b5b      	subs	r3, r3, r5
 800155c:	d418      	bmi.n	8001590 <_malloc_r+0x8c>
 800155e:	2b0b      	cmp	r3, #11
 8001560:	d90f      	bls.n	8001582 <_malloc_r+0x7e>
 8001562:	600b      	str	r3, [r1, #0]
 8001564:	50cd      	str	r5, [r1, r3]
 8001566:	18cc      	adds	r4, r1, r3
 8001568:	4630      	mov	r0, r6
 800156a:	f000 f87a 	bl	8001662 <__malloc_unlock>
 800156e:	f104 000b 	add.w	r0, r4, #11
 8001572:	1d23      	adds	r3, r4, #4
 8001574:	f020 0007 	bic.w	r0, r0, #7
 8001578:	1ac3      	subs	r3, r0, r3
 800157a:	d0d3      	beq.n	8001524 <_malloc_r+0x20>
 800157c:	425a      	negs	r2, r3
 800157e:	50e2      	str	r2, [r4, r3]
 8001580:	e7d0      	b.n	8001524 <_malloc_r+0x20>
 8001582:	428c      	cmp	r4, r1
 8001584:	684b      	ldr	r3, [r1, #4]
 8001586:	bf16      	itet	ne
 8001588:	6063      	strne	r3, [r4, #4]
 800158a:	6013      	streq	r3, [r2, #0]
 800158c:	460c      	movne	r4, r1
 800158e:	e7eb      	b.n	8001568 <_malloc_r+0x64>
 8001590:	460c      	mov	r4, r1
 8001592:	6849      	ldr	r1, [r1, #4]
 8001594:	e7cc      	b.n	8001530 <_malloc_r+0x2c>
 8001596:	1cc4      	adds	r4, r0, #3
 8001598:	f024 0403 	bic.w	r4, r4, #3
 800159c:	42a0      	cmp	r0, r4
 800159e:	d005      	beq.n	80015ac <_malloc_r+0xa8>
 80015a0:	1a21      	subs	r1, r4, r0
 80015a2:	4630      	mov	r0, r6
 80015a4:	f000 f808 	bl	80015b8 <_sbrk_r>
 80015a8:	3001      	adds	r0, #1
 80015aa:	d0cf      	beq.n	800154c <_malloc_r+0x48>
 80015ac:	6025      	str	r5, [r4, #0]
 80015ae:	e7db      	b.n	8001568 <_malloc_r+0x64>
 80015b0:	200000fc 	.word	0x200000fc
 80015b4:	20000100 	.word	0x20000100

080015b8 <_sbrk_r>:
 80015b8:	b538      	push	{r3, r4, r5, lr}
 80015ba:	4c06      	ldr	r4, [pc, #24]	; (80015d4 <_sbrk_r+0x1c>)
 80015bc:	2300      	movs	r3, #0
 80015be:	4605      	mov	r5, r0
 80015c0:	4608      	mov	r0, r1
 80015c2:	6023      	str	r3, [r4, #0]
 80015c4:	f7ff fd48 	bl	8001058 <_sbrk>
 80015c8:	1c43      	adds	r3, r0, #1
 80015ca:	d102      	bne.n	80015d2 <_sbrk_r+0x1a>
 80015cc:	6823      	ldr	r3, [r4, #0]
 80015ce:	b103      	cbz	r3, 80015d2 <_sbrk_r+0x1a>
 80015d0:	602b      	str	r3, [r5, #0]
 80015d2:	bd38      	pop	{r3, r4, r5, pc}
 80015d4:	20000104 	.word	0x20000104

080015d8 <_raise_r>:
 80015d8:	291f      	cmp	r1, #31
 80015da:	b538      	push	{r3, r4, r5, lr}
 80015dc:	4604      	mov	r4, r0
 80015de:	460d      	mov	r5, r1
 80015e0:	d904      	bls.n	80015ec <_raise_r+0x14>
 80015e2:	2316      	movs	r3, #22
 80015e4:	6003      	str	r3, [r0, #0]
 80015e6:	f04f 30ff 	mov.w	r0, #4294967295
 80015ea:	bd38      	pop	{r3, r4, r5, pc}
 80015ec:	6c42      	ldr	r2, [r0, #68]	; 0x44
 80015ee:	b112      	cbz	r2, 80015f6 <_raise_r+0x1e>
 80015f0:	f852 3021 	ldr.w	r3, [r2, r1, lsl #2]
 80015f4:	b94b      	cbnz	r3, 800160a <_raise_r+0x32>
 80015f6:	4620      	mov	r0, r4
 80015f8:	f000 f830 	bl	800165c <_getpid_r>
 80015fc:	462a      	mov	r2, r5
 80015fe:	4601      	mov	r1, r0
 8001600:	4620      	mov	r0, r4
 8001602:	e8bd 4038 	ldmia.w	sp!, {r3, r4, r5, lr}
 8001606:	f000 b817 	b.w	8001638 <_kill_r>
 800160a:	2b01      	cmp	r3, #1
 800160c:	d00a      	beq.n	8001624 <_raise_r+0x4c>
 800160e:	1c59      	adds	r1, r3, #1
 8001610:	d103      	bne.n	800161a <_raise_r+0x42>
 8001612:	2316      	movs	r3, #22
 8001614:	6003      	str	r3, [r0, #0]
 8001616:	2001      	movs	r0, #1
 8001618:	e7e7      	b.n	80015ea <_raise_r+0x12>
 800161a:	2400      	movs	r4, #0
 800161c:	f842 4025 	str.w	r4, [r2, r5, lsl #2]
 8001620:	4628      	mov	r0, r5
 8001622:	4798      	blx	r3
 8001624:	2000      	movs	r0, #0
 8001626:	e7e0      	b.n	80015ea <_raise_r+0x12>

08001628 <raise>:
 8001628:	4b02      	ldr	r3, [pc, #8]	; (8001634 <raise+0xc>)
 800162a:	4601      	mov	r1, r0
 800162c:	6818      	ldr	r0, [r3, #0]
 800162e:	f7ff bfd3 	b.w	80015d8 <_raise_r>
 8001632:	bf00      	nop
 8001634:	2000001c 	.word	0x2000001c

08001638 <_kill_r>:
 8001638:	b538      	push	{r3, r4, r5, lr}
 800163a:	4c07      	ldr	r4, [pc, #28]	; (8001658 <_kill_r+0x20>)
 800163c:	2300      	movs	r3, #0
 800163e:	4605      	mov	r5, r0
 8001640:	4608      	mov	r0, r1
 8001642:	4611      	mov	r1, r2
 8001644:	6023      	str	r3, [r4, #0]
 8001646:	f7ff fced 	bl	8001024 <_kill>
 800164a:	1c43      	adds	r3, r0, #1
 800164c:	d102      	bne.n	8001654 <_kill_r+0x1c>
 800164e:	6823      	ldr	r3, [r4, #0]
 8001650:	b103      	cbz	r3, 8001654 <_kill_r+0x1c>
 8001652:	602b      	str	r3, [r5, #0]
 8001654:	bd38      	pop	{r3, r4, r5, pc}
 8001656:	bf00      	nop
 8001658:	20000104 	.word	0x20000104

0800165c <_getpid_r>:
 800165c:	f7ff bcda 	b.w	8001014 <_getpid>

08001660 <__malloc_lock>:
 8001660:	4770      	bx	lr

08001662 <__malloc_unlock>:
 8001662:	4770      	bx	lr

08001664 <_init>:
 8001664:	b5f8      	push	{r3, r4, r5, r6, r7, lr}
 8001666:	bf00      	nop
 8001668:	bcf8      	pop	{r3, r4, r5, r6, r7}
 800166a:	bc08      	pop	{r3}
 800166c:	469e      	mov	lr, r3
 800166e:	4770      	bx	lr

08001670 <_fini>:
 8001670:	b5f8      	push	{r3, r4, r5, r6, r7, lr}
 8001672:	bf00      	nop
 8001674:	bcf8      	pop	{r3, r4, r5, r6, r7}
 8001676:	bc08      	pop	{r3}
 8001678:	469e      	mov	lr, r3
 800167a:	4770      	bx	lr
